ccopy_reg
_reconstructor
p0
(clrsgd
LogisticRegressionSGD
p1
c__builtin__
object
p2
Ntp3
Rp4
(dp5
Veta
p6
F1.0
sVweight
p7
(lp8
F-0.15399925093098954
aF-0.2925178350049269
aF-0.9120211276885636
aF-0.5134170047113151
aF-0.025079940974497176
aF-1.9202629895365342
aF-0.4864014528244309
aF-2.8306559379611187
aF-0.7749983349759344
aF0.0
aF-1.2400086214386057
aF-5.919038770822635e-05
aF-0.2925178350049269
aF-0.6341052648262013
aF0.0
aF-0.4253797410610793
aF-0.08996997614689135
aF-0.0070061803106906285
aF0.0832047860527079
aF0.0
aF-1.8625584378261828
aF-0.003744042182081892
aF-0.010774941807174518
aF0.0
aF-0.44166624988503905
aF-0.11863177192357233
aF-0.010025693412248779
aF-0.27815493876476216
aF-0.006584580173986213
aF-0.3655309003868447
aF0.0
aF-0.0201525328158958
aF-0.9389378153930649
aF-1.1092403171017162
aF-0.0042731553120949105
aF-0.013322249314894556
aF-0.03716572772953595
aF-0.005035245181330878
aF0.152949162826057
aF0.0
aF-0.23992523999434842
aF-0.6588878250706015
aF-0.3868924748149386
aF-0.7666678350739429
aF0.0
aF-0.30507806518174774
aF0.0
aF-0.6767925213396461
aF-0.18728762846121147
aF-0.002956273463068745
aF0.0
aF-0.045634643812704094
aF-0.1057344110197683
aF-0.009116931229521626
aF-0.1867611512958149
aF-0.7471773470323142
aF-0.7267188635649188
aF-0.9663724901221672
aF0.0
aF-0.3408895402162708
aF0.25323945933840036
aF-1.9749318154310098
aF-1.3109145325468008
aF-0.005033154517358626
aF-1.592610477497946e-05
aF-0.006364250889012366
aF-0.3075309418096915
aF-0.006518997229214498
aF0.0
aF-0.43281743033728026
aF-1.4355710960851782
aF0.0
aF-0.014549019977488213
aF-0.15007999624428603
aF0.0
aF0.25398966087101205
aF-0.06896954984559875
aF0.02095065654628835
aF-0.0042731738967273026
aF-0.00013935746633206118
aF0.0
aF-0.3014353843441474
aF0.07849596902652878
aF-0.023999291366547867
aF0.0
aF-0.07530668126364348
aF-0.3913327188541759
aF-0.041676426954221114
aF0.0
aF-0.05676304239572635
aF0.23978883799574008
aF-0.10728858941753859
aF0.0
aF-1.0827657492071827
aF-0.6578220938753991
aF-0.04943937975346791
aF-0.1132436248609889
aF0.0
aF-0.5219536634690765
aF-0.34549413051215705
aF-0.9749789965253551
aF-0.017013047155218404
aF-1.0219567644485534
aF-0.005035245181330878
aF-0.019371637615554247
aF-0.6629787013470713
aF-3.5680164743754075
aF0.0
aF-0.013179101443281204
aF-0.749895853877292
aF-0.010207973832217093
aF-0.002991391776492814
aF-0.16800116256556244
aF0.8327231482293685
aF0.0
aF-0.036322553480713185
aF-0.8299580834833212
aF0.0
aF-0.23829561440701402
aF-0.5158755613498351
aF-0.9344799523944938
aF-2.319990923571069
aF-1.5764529426872582
aF-0.014549019977488213
aF-1.1858348622204922
aF0.0
aF-0.004741730437432493
aF-0.006114460132374381
aF0.0
aF0.0
aF-0.023999291366547867
aF-0.04943937975346791
aF-0.6446367843414641
aF-0.00570068524465239
aF-0.24105579562225618
aF-2.116671668425589
aF-0.026367137129565725
aF-0.13533519283234832
aF-0.09960876127773499
aF-0.8406661282163982
aF-4.027767718250506
aF-1.0556086504537399
aF-0.48918665962456237
aF-0.013402503613753744
aF-0.08764723206340513
aF-2.226261064316094
aF-0.09418927677505604
aF-1.153612530830694
aF0.0
aF-0.008998365779537151
aF-0.03329969959126771
aF-0.023429602137386252
aF-0.03400041628491943
aF-0.8452116375575229
aF-0.4020503618657069
aF-0.4654067698100016
aF-0.26087683455050165
aF0.0
aF-1.756956089024841
aF-0.16523152825636445
aF-0.08411968375475665
aF0.0
aF-3.2609760732813218
aF-0.050540212018197486
aF-0.33193760363066604
aF-1.637877802295783
aF0.0
aF0.0
aF-0.039429764128694096
aF-0.06707954334350516
aF-0.8087929862660583
aF-4.7470850240630424
aF-0.6175941409845728
aF0.0
aF-0.0033202685389829654
aF-0.12023448932814682
aF-0.09942923645054018
aF-0.9554293808088659
aF-0.6534037934728795
aF-0.025332252231275085
aF-0.7881692191846463
aF-0.30800928458938875
aF0.0
aF-1.702358368025707
aF0.9692792895306418
aF-1.1096685725650621
aF-0.15631900189359685
aF-1.714846181878466
aF-3.1678834643863585
aF-0.08904885450341204
aF-0.021454022436288793
aF-3.3495199048224356
aF0.0
aF-2.8410523563014287
aF-0.08411968375475665
aF-0.4011618976497123
aF-0.6694844068883754
aF0.0
aF0.7374175195737778
aF-0.18267122738630545
aF-0.05581668477155727
aF-0.07408733506782966
aF0.8666525227087217
aF-0.008732160526332126
aF-0.014902778437722862
aF-0.012247862184033806
aF-0.8469057111109713
aF-0.007263259602433862
aF-0.10880271845141318
aF-0.6149248126279615
aF-0.02657913314564236
aF-0.06505603828838874
aF-0.23992523999434842
aF-0.28587431904655186
aF-0.1994215689479172
aF0.0
aF-0.22279526954373072
aF-0.033592275770854406
aF-1.9456677279860313
aF-1.3758675534746165
aF-2.3004512851151224
aF-0.11012906501759237
aF0.0
aF1.159594972117381
aF-0.006441159360821428
aF-0.014317858646393787
aF-0.5300124374066261
aF-0.5237455889834628
aF-1.4498176319308036
aF0.0
aF-0.8559025705528454
aF-0.00491571977947561
aF-0.006518997229214498
aF-0.054711315594125405
aF0.0
aF-0.012247862184033806
aF-0.009180328805606134
aF-0.07304953614973075
aF0.0
aF0.7592776462349267
aF-1.7233518081823667
aF-0.5977906401807722
aF1.5946002195036886
aF-0.9836265334821048
aF-0.6146330843156157
aF0.0
aF-6.832206084537531
aF0.0
aF-0.5565742934815872
aF-0.12567265022448695
aF-0.019779519278820688
aF-0.2119188056745236
aF-0.09762355602805084
aF-0.013866496012794787
aF-0.6881271707022745
aF0.0
aF-0.8289456843635901
aF0.0
aF-0.00014103143443632617
aF-0.5816107458580658
aF-0.9474028194037888
aF0.0
aF-0.30876476581388373
aF-0.374942983474227
aF-1.8981218433537232
aF-0.1908489353563855
aF-0.35308678982196784
aF-0.11461611217734703
aF-0.4177495601484046
aF-0.9135639091098181
aF-1.075455522491801
aF-0.00448029832929348
aF-0.0027839460686913645
aF-0.20788977928835842
aF-0.003873660286597253
aF-0.34249551453382565
aF2.2017882377929184e-15
aF-0.0041465139174553176
aF0.0
aF-0.23753556411092872
aF0.0
aF-0.37263636362642205
aF-0.964574814150268
aF-0.025029781092548182
aF-0.9326525583060878
aF-0.22234967900464325
aF-0.24019692253576205
aF-0.08556668379596961
aF-0.5783938099746276
aF-0.0897783687246067
aF-0.01128268553045252
aF0.0
aF0.0
aF-0.2523659600981206
aF-0.015793615014446236
aF-0.4084499630381026
aF-0.003873660286597253
aF-0.04014664960175763
aF-0.03494243413222222
aF-0.417538122300611
aF-0.3421978191431691
aF-0.6284714864538613
aF-0.018315614418968916
aF-0.010897125199146502
aF-0.42449411230336936
aF-0.22279526954373072
aF-0.9966128568137048
aF-0.005839297030020135
aF0.0
aF0.0
aF0.0
aF-0.5390514356029528
aF-0.33051359797783264
aF-0.21620417934035618
aF-0.2182278414854425
aF0.39224643733686226
aF-0.47732885898538274
aF-1.102453859046519
aF-0.009070714213016032
aF-0.006518997229214498
aF-0.17208609974200348
aF-0.253070125876976
aF-0.153582820352382
aF-0.20197726571747682
aF-0.7625061808842425
aF-0.3188088138857121
aF-0.6082717636369359
aF-0.49168135644096356
aF-0.005839297030020135
aF-1.498054891233388
aF-0.2925178350049269
aF-0.044876222483344025
aF0.0
aF0.0
aF-0.017797024634577004
aF-5.778809445808108
aF-0.2081039792769702
aF-0.012697275644152102
aF-0.5894716185850001
aF-0.8119165357320175
aF-1.3373930174006996
aF-0.007544861683682134
aF-0.012825013806641769
aF0.0
aF-0.16335779589749116
aF-0.4536290948551812
aF-0.2730967550166785
aF-0.07454561428518366
aF-1.6042270268374852
aF-0.7020894003754037
aF-1.5148710614365883
aF-0.29051561088835004
aF-0.003655167036891903
aF0.0
aF-0.08184949790430208
aF0.0
aF-2.8442659201449105
aF-0.17602884838999525
aF-0.005543124597708166
aF-0.009180328805606134
aF-0.7519706046256478
aF-0.0382632890387955
aF-1.540156833784488
aF0.0
aF-0.014902778437722862
aF0.0
aF-0.32009433824717937
aF0.046399251567373526
aF0.0
aF0.0
aF-3.940688268285519
aF-1.8082256978794946
aF-1.2041874510571486
aF-0.4088712629446742
aF0.0
aF-0.7496026676468653
aF-0.8384702025031151
aF-0.027279962939217924
aF0.0
aF-0.003723286380457297
aF0.0
aF-0.006126713559493368
aF0.0
aF-0.28207781111619395
aF-0.43614972371987565
aF-0.28969930403331295
aF12.198328693564896
aF-0.13533677995101462
aF-0.027279962939217924
aF-0.13652579945181145
aF-0.03266593248503042
aF-0.005886245915709523
aF-0.9101970854331864
aF-0.08573984306195055
aF-3.297448588550815
aF-0.35752275993486154
aF-0.049637732131063636
aF-0.2871877674426536
aF-0.3212021329859994
aF-0.3355424711786991
aF0.0
aF-0.2799453735769757
aF0.0
aF0.0
aF-0.3752477378354419
aF-0.0949547192283925
aF-0.003414643303430881
aF-2.838916418159541
aF-0.34678183553898523
aF-0.9569117962020657
aF0.0
aF-0.9024524385314863
aF-0.007666673213799634
aF-0.4054970217892273
aF-0.22813291618419973
aF-1.031366296140841
aF-0.3121540982193823
aF-0.008289239503047276
aF-2.0496961101565083
aF-0.1414302715520098
aF-0.03864016825660633
aF-0.024780482472485498
aF-0.014902778437722862
aF0.0
aF0.0
aF-0.055973112035844735
aF0.0
aF-5.017407977620304
aF-2.0816260892867375
aF-1.2491894935405177
aF-0.027873844248923287
aF0.0
aF-0.22234967900464325
aF-0.020357677678570333
aF-1.8468308818944844e-08
aF-0.04623760524008951
aF-0.6904784650620535
aF-0.8401142354007665
aF-0.2250387433829611
aF-0.00020959981026506005
aF-0.6547421608472477
aF-0.4309328816258034
aF-0.0949547192283925
aF-0.0003775923319003343
aF-1.3959474154557878
aF-0.2952652031403016
aF-0.03211105315450961
aF-3.1314342531644725
aF-0.004474273816084964
aF-0.05319679160222272
aF-0.5819055909895484
aF-0.2584983176468415
aF-3.465586285701417
aF-1.7709839897879407
aF-1.3167988138075665e-05
aF-0.0001822771189997347
aF-0.15383533573764158
aF-2.6891493273374607
aF0.0
aF0.005397305823859233
aF0.052977494531972376
aF-0.007263259602433862
aF0.0
aF-0.197686887448433
aF0.0
aF-0.4022316635622791
aF-0.16137407363635656
aF-2.539538702000736
aF-0.1801943535725462
aF-0.01128268553045252
aF-0.023583080693801897
aF-0.06702406093859226
aF-1.5675647189172022
aF-0.2106498341707941
aF-0.1831044974619667
aF-1.337047816897944
aF-0.09802943914539236
aF-0.8468596351983458
aF-0.9336536525044702
aF-0.003476728364050744
aF-0.01128268553045252
aF-0.01700793235188321
aF-0.7817296389230176
aF-0.19885326082733068
aF-0.12311659508287981
aF-0.2444239356228662
aF-1.5010658082255666
aF-1.486099880327701
aF-0.0827579093831586
aF-0.1591620417853026
aF-0.305119342589763
aF-0.12891024363188516
aF-0.37263636362642205
aF-0.13839148551137262
aF0.0
aF-0.5539998916300186
aF-0.2864207481100576
aF-0.010477134310644148
aF-0.01700793235188321
aF-0.035602605722825476
aF-2.467592780480833
aF-1.6002998823145093e-08
aF0.5707616898108672
aF-0.33080211537534354
aF-1.9436420015066322
aF0.28941670788927926
aF-0.6765776904336347
aF-0.2633586157405622
aF-1.1515540175209327
aF-0.03076176844459347
aF0.0
aF-1.223246041445055
aF0.0
aF-0.07449353786769629
aF-0.002160368537469369
aF-0.005411543280183143
aF-0.014902778437722862
aF-0.15383533573764158
aF-0.03720573397060254
aF0.0
aF-1.228134552200331
aF-2.765474273057919
aF-3.399764082566063
aF-1.7067082120860495
aF-0.44271887975626345
aF-1.2149637257452224
aF-3.0563706799881505
aF-0.30876476581388373
aF-0.0014399457563735944
aF-0.04062037727403351
aF-0.014902778437722862
aF-0.11507595569630948
aF-0.007336330035911268
aF-0.1744218881322571
aF1.7205272176609585
aF-0.33747617385999495
aF-1.7966365866096117
aF-0.32794067508710584
aF-0.004154823564584486
aF-0.4803587702801593
aF-0.05443150841079001
aF-0.39740839805039596
aF-0.1328585374010975
aF-1.337908221140015
aF-0.01537633142242969
aF-0.5584541397099423
aF-1.448020881212578
aF-0.3169061730562877
aF-0.01113947579306335
aF-0.622032267984988
aF-1.6776358201164805
aF-0.20400921379126066
aF0.0
aF-0.04170316564301434
aF-0.24830205090603438
aF-0.8353915783867509
aF-0.15045244716634812
aF-0.7875940099880165
aF-0.13779576635794946
aF-1.8315678388031573
aF0.0
aF-0.008873142131873391
aF-1.3513652483246141
aF1.6715675635049019
aF-0.05164433722585263
aF-3.992492962115256
aF-0.7952245655017475
aF-0.6450428147852293
aF-1.211173421904236
aF-0.38192182537731345
aF-0.12498973828284278
aF-0.0002724373566888659
aF-5.948357089664424
aF-0.014902778437722862
aF-0.15383533573764158
aF-0.12293533467639667
aF-0.10873759334150543
aF-1.5490641415167492e-07
aF-0.2405610472424723
aF-3.01869940966103
aF-0.038994337137512165
aF0.0
aF-0.4760765862775692
aF0.0
aF-0.22090352649167172
aF-0.052871734043860426
aF-0.06835439728632903
aF-0.8058675997174483
aF0.0
aF0.11718814026131337
aF-0.01374612209495008
aF-0.013136853170650187
aF-0.047120078416777726
aF-0.994011992
aF-1.138033053774106
aF-0.07232195693155818
aF-0.7036435933694991
aF2.259914593350813
aF-0.02991154712430463
aF-0.09629478435617221
aF-0.23097034462860244
aF-0.10917232217251135
aF-0.0032806240021807697
aF-0.009790696892937982
aF-0.8078364229728116
aF-1.963884892199055
aF-3.037409516865932
aF-1.4379530440294361
aF-0.012346336962532203
aF-0.005368380637897602
aF-0.6356561854972985
aF-0.4013532897099135
aF-2.9046326762597947
aF0.9613722059148679
aF-2.028816001896598
aF0.0
aF-0.22901053126751653
aF-0.2574850592162647
aF-1.0869740170750501
aF0.0
aF-0.027062377082292387
aF-0.7432338397488705
aF-0.005781137164924329
aF-0.5210999784574509
aF-0.34264120502071715
aF0.0
aF1.1244900933110713
aF-0.7631731345409092
aF-0.9267456771529368
aF-4.566915612081206
aF0.0
aF-2.806772825050394
aF-1.8016012570206283
aF-0.6078836856204063
aF0.0
aF-0.10287145973098473
aF0.0
aF-0.8396826913287944
aF0.0
aF0.0
aF-0.059881565083726614
aF0.0
aF-0.9679277598952418
aF-0.03066927882012731
aF-0.005449575567640291
aF-0.07905339529985075
aF0.0
aF-1.4063026888116847
aF-2.8332140472347507
aF-1.467190730313766e-05
aF-2.4064822288818655
aF-5.6409508678615826e-05
aF0.018935682361830217
aF-1.1772630708765235
aF0.014791876240770163
aF-0.08122669342918096
aF-0.7513067856627711
aF-3.7693986823330263
aF0.0
aF-0.9836264786805304
aF-1.986051772707088
aF-1.390236921637588
aF-0.6248781501114566
aF-0.010710421369433622
aF-0.25569347132228004
aF-0.0004056607766218054
aF-0.3408798181665192
aF-0.1563936494569356
aF-1.821274499169152
aF-8.236130484850516
aF0.0
aF0.0
aF0.0
aF-0.36013355819768006
aF-0.6784871428162206
aF4.2737576536147444e-14
aF-0.18419864299145736
aF-1.3117733688338256
aF0.0
aF-1.467920305259903
aF0.0
aF0.0
aF-0.5953711235590183
aF-0.006090026749685413
aF-0.46824715561129826
aF-1.1498578675324758
aF-1.6953323384391574
aF-1.5613869656566954
aF-4.081540693120815
aF-0.5449899234280002
aF-1.4314409125166977e-06
aF-0.03386455062144493
aF-0.16632785755975116
aF-0.7696140777172967
aF-0.6606551964192786
aF-3.275118997496998
aF-21.93567145430621
aF-0.01766734278331198
aF-0.08625465367242975
aF-0.12492213996912124
aF-0.21234349265984329
aF-0.013189558647003614
aF-0.541880401277567
aF-0.012346336962532203
aF0.0
aF0.0
aF-0.19324120207397755
aF-0.0813714081786978
aF-2.2868296357404425
aF0.0
aF-0.05545163490225738
aF-0.1476818594265817
aF-0.17105564680005955
aF-1.1894102033684157
aF-0.7405957118655865
aF-0.272722704819191
aF-0.19355186960119067
aF-1.0473330524092344
aF0.0
aF0.01162928378662975
aF-0.010431781254089568
aF0.11174008126659665
aF0.027742510535682746
aF-2.348819241912412e-05
aF-2.0053999867243117
aF-0.010342729670938447
aF-0.001530870270747421
aF0.5369462064682017
aF0.0
aF-0.026938417923358684
aF-0.2860923128900845
aF-1.7957404583185125e-05
aF-0.8251482132286804
aF-1.0337303535317406
aF-0.08888416899701954
aF-1.0787573709135574
aF-0.15852508122455475
aF-0.4177495601484046
aF-0.5304690920955888
aF-1.3481355560068935
aF0.0013539530921502206
aF-2.0341371669755848
aF-0.709222775041931
aF-2.4173488282225106
aF-0.5280106357859746
aF-2.741718804480072
aF12.643923044015434
aF-0.4777159425996484
aF-0.027775948892188176
aF-0.1835500326238171
aF-0.26097157333361776
aF-0.024533666886602586
aF-0.6506671214878772
aF-0.530522598572254
aF-0.2570594920897933
aF-0.004213459240791215
aF-0.0027287519380154515
aF-0.02657913314564236
aF-1.0431978003790299
aF-2.161972793453331
aF-1.7718515870988356
aF0.0
aF0.0
aF-0.5130221077135373
aF-0.01172012380215914
aF-0.12375081256817433
aF-1.3450869985146523
aF-0.0032813908676270157
aF-0.15744386234780533
aF-1.1513449811085954
aF0.0
aF-0.003800512365896287
aF-5.127717864568146
aF0.0
aF-0.7002684346265372
aF0.0
aF-4.309414357405256
aF-5.256550331626852
aF-0.43448430882780636
aF-0.037419235261102995
aF-0.7451141534567026
aF0.5926703311519346
aF-1.5912289113937161
aF-0.6724564990648515
aF-0.8999753823521851
aF0.0
aF-0.7180914433590612
aF-0.38561835968338687
aF0.0
aF-1.1768917980423808
aF-14.663822300176465
aF-0.014090370109829579
aF-2.6787131493849503
aF-3.0731982822674637
aF-0.6787008554150109
aF-0.6093648652680129
aF-2.3490092950400068
aF0.0
aF-0.025281587726812535
aF-0.004368064613387572
aF-0.8533906622784566
aF-0.30876476581388373
aF0.0
aF-0.000421865289739203
aF-0.0030220987394249544
aF-0.033549282093654605
aF-1.044474987579105
aF-0.00598077812999331
aF-0.393626605988732
aF0.2500244284367389
aF-0.7714209755799266
aF-1.1349266411379566
aF0.0
aF-0.7043694317441554
aF-0.07675428889024839
aF-0.8292977708441387
aF-1.446197031035645
aF-1.856088951743733
aF-3.993763759019522
aF-1.4045140799240905
aF0.9384280157123744
aF-1.4482873052412335
aF-0.4315271018148371
aF0.0
aF0.39210861599747476
aF0.213151306009493
aF-0.012902272718900728
aF0.0
aF-0.04415309930544974
aF-8.561526703660814
aF-0.2072974812678012
aF-0.00486675881760755
aF-0.22974125302817533
aF-0.37734415442939234
aF-1.0414460361069946
aF0.0
aF-0.3937751190306502
aF0.0
aF-0.019102056493272773
aF-0.02210945779684209
aF-0.10087833597552509
aF-0.9607509570263429
aF-0.04071170309848832
aF-0.42552787022240035
aF-0.3245387978482762
aF-1.060817470443078
aF-1.8749947578869257
aF-2.492517005128985
aF-0.37795758526685463
aF-1.2126978739091543
aF-0.17768760390813607
aF-0.6196403179542409
aF-1.7630042111760234
aF0.44306164283919663
aF-2.3273973705398845
aF-0.8815036219955704
aF-2.900190372901173
aF-0.02522429476664419
aF-0.04449749058500972
aF-0.1597366509756907
aF2.0095441314851574
aF-0.15287455706105138
aF-0.8893521228703121
aF-0.6660170534322826
aF-0.5733356404176123
aF5.8027626888365385
aF-6.464780562777108
aF-0.3794739423884032
aF-0.13587816196757074
aF0.0
aF-0.9873439226021608
aF-0.979159316249476
aF-0.02012269069204065
aF0.5239312514477671
aF-0.08090211156223795
aF0.0
aF-0.1092099798811225
aF0.0
aF-1.1482710060331398
aF-0.9607509570263429
aF-5.9499171074664705
aF-1.6098438587668231
aF-0.030700244907704285
aF-5.516794060200729e-05
aF0.0
aF0.0
aF-3.5945528020567044
aF0.6574521714795395
aF-0.6465391949317332
aF-0.25786965929513245
aF-0.0042731553120949105
aF-4.862227900593616
aF-6.736777263875013
aF0.09404194938142554
aF-0.7215696031781901
aF-6.487752994981791
aF-2.8157174081903893
aF-1.7337587227069624
aF-0.004799031641930602
aF0.015191063340495012
aF-0.8144117647481496
aF-0.25375860714680015
aF-0.11693385300851838
aF0.0
aF-0.0034420998716845562
aF-0.6211133701846114
aF-0.0077748704840709965
aF-0.4149923200541408
aF-0.04884906566076671
aF0.0
aF-0.9816990085530874
aF-0.017797024634577004
aF-0.004335103893588892
aF-0.22713544510104353
aF-0.21575099065655884
aF-0.02358038729905292
aF-0.28729444055963194
aF-0.4102899441151912
aF-0.22821252181387036
aF-0.9035355795154383
aF-0.8378256081525953
aF-1.5102204120259517
aF0.0
aF-0.32060661777274807
aF-0.03877242098759326
aF0.0
aF-0.5626851236955449
aF-0.0699973192712572
aF-0.09942923645054018
aF0.0
aF-1.5987847803422104
aF-0.03197592735547578
aF0.0
aF-0.26076974654242774
aF-0.012570809763969671
aF-0.1755860927679417
aF-2.866747381516593
aF0.0
aF0.0
aF-0.0027287519380154515
aF3.6023846366417905e-12
aF-0.0832493010512809
aF-0.19288787927342815
aF-1.363942631617061
aF-1.3340041111635397
aF-1.596997614169575
aF-0.03689773051327025
aF-0.04102083457566159
aF-0.6291324256336285
aF-0.22920176307908732
aF0.7582497514484595
aF-0.803024559236889
aF0.0
aF-0.0184628748996854
aF0.0
aF-0.3660426798827501
aF-1.1497981705991378
aF-0.07929855431622707
aF-0.014090370109829579
aF-0.4135957579683746
aF0.0
aF-5.664256956415336e-10
aF0.0
aF0.0
aF0.0
aF-0.26076974654242774
aF-0.0899582852951971
aF-0.4102899441151912
aF-0.10018349568554154
aF-2.0677765219255155
aF0.0
aF-1.8784204556666295
aF-0.3438525785279113
aF-1.5791275420509914
aF-0.20841701291365775
aF-0.023624423022085766
aF-0.17071353550645943
aF-0.005157521660682511
aF-0.05442607701081012
aF-0.07913995720759455
aF-0.0780620920393689
aF-0.0185740610348363
aF-0.004171492850013139
aF-2.8396289713173153
aF-0.5154768502047333
aF-1.4106642562571103
aF-2.8469356532986754
aF0.0
aF-0.06324357845965793
aF-0.5828295208654831
aF0.0
aF-0.6747397779679012
aF-0.696035898648872
aF1.715133574762033
aF0.0
aF-0.5743279296550685
aF-0.9768757628329372
aF1.8801081554402876
aF-0.1601198881068859
aF-0.01747877766222346
aF-0.6698321708628818
aF-0.40865042549850694
aF8.828500471038955e-12
aF0.0
aF-1.0930299903870295
aF-0.006005212922651209
aF0.0
aF0.09496645213414093
aF-0.010435267681938814
aF-0.8968744628857319
aF-0.05847322304636123
aF-5.321190465283688
aF-0.6822170638128473
aF0.0
aF-1.1932735616197097
aF-0.005188747086969882
aF-0.25072868883694355
aF-0.8064393797125539
aF-0.0044655179115055225
aF5.657074370913471
aF-0.0663564959459397
aF-0.00486675881760755
aF-1.2566998220950394
aF-0.045634643812704094
aF-0.12189941233497999
aF-1.9876252534820102
aF-0.314046566289672
aF0.0
aF-2.6469795375471254
aF-1.5676916761595744e-06
aF-0.5963255643161423
aF-0.031770883837600995
aF-0.9849819979543153
aF-0.09629478435617221
aF-0.9146220562349451
aF-0.9326678518362822
aF-0.00013935746633206118
aF-0.041453446492797405
aF0.6749199049727267
aF0.0
aF0.0
aF-0.03888104851279942
aF-0.25173462037998195
aF-0.4090428679255134
aF-0.21414319766608716
aF-0.018205940365839904
aF-1.4859812394468626
aF-0.009489149796145185
aF-0.13817958869220295
aF-1.0427433251452194
aF-0.108305104133662
aF-0.39611793424249603
aF-0.3595063765465449
aF-0.06039748920955339
aF-0.1092392384482524
aF-0.1266830785105184
aF-1.1666533208971137
aF0.0
aF0.0
aF-2.3490082328948083
aF-0.029436299096667954
aF-0.05313412428666437
aF-0.862323298757692
aF0.0
aF-0.014491148863134474
aF0.0
aF-0.056416704708564185
aF-5.326568307295254e-07
aF-0.01743223274907168
aF-0.8803841969849161
aF-0.8284587343310673
aF-0.061626840613160906
aF-0.09571817041708917
aF-0.17243096166533414
aF-0.08553665966427079
aF0.0
aF-0.5275947355920482
aF-0.923627298400187
aF0.3157040463894977
aF-0.998
aF-0.3602268302069649
aF-0.07505947431765714
aF-0.36164889300099307
aF-0.5175449598643512
aF-0.0041465139174553176
aF-0.12447860474871791
aF-0.3293389243416479
aF-0.003723286380457297
aF-7.106929179619284
aF-0.17602884838999525
aF-0.039429764128694096
aF-0.08454500392129592
aF-0.7342513363435775
aF-0.153582820352382
aF-0.22234967900464325
aF-0.005411543280183143
aF-0.09942923645054018
aF-11.673188988728663
aF-3.4374489723260955
aF-0.0060182556415553186
aF-1.1741464856454678
aF-0.006518997229214498
aF-0.0663564959459397
aF-0.9093037813892058
aF0.02095065654628835
aF-0.0897783687246067
aF0.0
aF-2.6469795375471254
aF-0.862323298757692
aF-1.4347160948852666
aF-0.724893155527739
aF-0.01557945195751914
aF-0.42342980735101904
aF-4.239270544148063
aF-0.5857442270800398
aF0.0
aF-0.013541141139495465
aF-0.4489691650726607
aF-1.0365005592070673
aF-7.980525801176289
aF-0.8220933608208351
aF-0.9579696514589882
aF-0.2379970728259814
aF-0.17480726351210943
aF-0.25785553105514547
aF-2.1418613284487362
aF0.0
aF-1.4225620405568324
aF-0.3414600993007274
aF-0.2945632773095704
aF-2.7454913785461574
aF-0.6263774608064797
aF0.0
aF-0.4864014528244309
aF-3.6296049774392647
aF-3.306644157905404
aF-0.3268980181992396
aF-0.28443296497107706
aF-0.2784068653523761
aF-0.9408433474433965
aF-2.0762926075017827
aF-0.1266830785105184
aF-0.391826064812139
aF-0.008732160526332126
aF-0.010482403948977578
aF-0.7510474987311466
aF0.0
aF-0.3602268302069649
aF-1.3022403901008932
aF-0.06400784232289851
aF0.2400717603560012
aF-0.028458330676407528
aF-1.0185893510535273
aF-2.536575690635065
aF-0.004171492850013139
aF-2.269468041435792
aF-0.9749789965253551
aF-4.479141728605118
aF-0.994011992
aF-0.8674978985213881
aF-0.10087833597552509
aF0.0
aF0.008911176589572124
aF-1.4355710960851782
aF-1.3373930174006996
aF-2.319990923571069
aF-3.5680164743754075
aF-1.5764529426872582
aF-0.7267188635649188
aF-1.7233518081823667
aF-0.6629787013470713
aF-2.234945255059072
aF-1.142369379473689
aF-2.116671668425589
aF-0.021368292162633314
aF-0.005035245181330878
aF-0.009180328805606134
aF-0.007263259602433862
aF-0.22279526954373072
aF-0.008339196705136668
aF0.0
aF-0.07449353786769629
aF-1.0239379291788788
aF-0.22958729235720363
aF-1.3548532049703201
aF-0.30876476581388373
aF-0.041676426954221114
aF-0.38192182537731345
aF-0.006114460132374381
aF-1.1117357472367093
aF-0.2968746623373119
aF-1.0219567644485534
aF-0.0045982161208841495
aF-0.15414362298360879
aF-0.17779292059859628
aF-0.8401142354007665
aF-0.7978815158432945
aF-0.2861066592553341
aF-0.5186779491989483
aF-0.014932643725173209
aF-0.13425525214971662
aF0.0
aF0.0
aF-1.3548532049703201
aF0.0
aF-0.8762250699776164
aF-0.9614554568119964
aF-0.5030044290863389
aF-1.7233518081823667
aF-0.0465910221291523
aF0.0
aF-0.22234967900464325
aF-6.527920341502911
aF-0.005400720193622776
aF-1.043980255311172
aF0.0
aF0.0
aF7.759613508307942e-11
aF-0.021325532451576795
aF-0.011266442866814183
aF-1.0237600356738465
aF-0.9366710895645
aF-0.8992745697644179
aF-0.04049995603204716
aF-0.002828892910744933
aF-0.06003433451032272
aF-0.013783463246496817
aF-0.16271985684726267
aF-2.3946942874100454
aF-3.0731982822674637
aF-0.33043445524891585
aF-0.00581596319872146
aF0.0
aF0.11718814026131337
aF-10.515315428537734
aF0.0
aF-0.017880842904235448
aF-0.0528263927167197
aF-1.3450869985146523
aF-0.04976792286199795
aF-0.02042534816668574
aF-0.0823730193853189
aF-0.035602605722825476
aF-0.6334923736168143
aF-0.49301430551958797
aF-0.011327952026721995
aF-0.004537573790750788
aF-0.4564198632950956
aF-0.00041752948345460933
aF-0.18621265629752098
aF-1.7151192758589624
aF-1.9839649644796757
aF-0.005035245181330878
aF1.1094546462249364e-16
aF-0.30876476581388373
aF-0.9100907105747451
aF0.0
aF-0.006114460132374381
aF-0.0575641207863457
aF-0.012902272718900728
aF-0.5137184422303198
aF-0.0028459344277306435
aF-0.1414302715520098
aF-0.33111558764507903
aF-0.06186484527084818
aF-1.6953323384391574
aF-0.0013448794014033713
aF0.0
aF-1.1772630708765235
aF-0.44682754031699384
aF-1.8026989639737083
aF-1.0792995096557831
aF-1.8026989639737083
aF-0.9672039021373933
aF0.0
aF0.0
aF-0.8119165357320175
aF0.0
aF-1.9571324510286856
aF-0.17071353550645943
aF-0.12219919690887174
aF-0.020986725621277506
aF-0.1676169851105012
aF-1.5335418248198227
aF-0.9366710895645
aF-1.8981218433537232
aF-0.4227978338306051
aF-0.8292977708441387
aF-0.23576882625829762
aF-0.14809363330100989
aF-4.239270544148063
aF-0.3726978218935596
aF-0.6881271707022745
aF0.0
aF-0.6284714864538613
aF-0.08353552306754958
aF-0.08200522576797459
aF-2.4382559203386625
aF-0.07788254620127458
aF-0.3794739423884032
aF-0.013032073209591969
aF0.0
aF-0.010519168909604713
aF-1.0880977128912297
aF-0.848533511848856
aF-0.2664163110307851
aF0.005380184542469098
aF-0.04314692215537604
aF-0.29193279933491706
aF-1.3109145325468008
aF-2.6407244162156487
aF-0.004770295002067233
aF-0.027842171252427602
aF-0.04232081463958156
aF-0.5506825358469389
aF-0.22813291618419973
aF-0.009322984533034056
aF-0.0042731553120949105
aF-0.39131262133051514
aF-1.240374936906558
aF-0.02912069565008845
aF0.0
aF-0.2106498341707941
aF-0.006908680347675326
aF-0.2861066592553341
aF0.0
aF-0.6030225422983226
aF0.0
aF-0.30876476581388373
aF-0.06387982663825272
aF-0.7451141534567026
aF-0.4830168535183719
aF-0.11736229197766179
aF-2.3186311199994774
aF-0.010774941807174518
aF-0.19355186960119067
aF-0.9268099076931641
aF0.0
aF-2.0496961101565083
aF-0.22090352649167172
aF-0.8674978985213881
aF-0.014932643725173209
aF8.828500471038955e-12
aF-0.03197592735547578
aF0.0
aF-16.64678641453581
aF-0.00689486298697996
aF-0.2119188056745236
aF-0.10069962366813802
aF0.0
aF-2.6640057368927725
aF-0.06316269932877618
aF-0.37795758526685463
aF-0.7405957118655865
aF-0.9970363454424767
aF-1.566391139257256
aF-0.34352342142214853
aF-0.4830168535183719
aF0.0
aF7.735911755006582e-10
aF-4.184665091719359
aF-0.2241890484356945
aF-0.0030463969061975908
aF-0.020045115157559745
aF-0.0034420998716845562
aF-0.8808473890922314
aF-0.26573667881411434
aF-0.21986320124476758
aF-0.6101289784122315
aF-0.8999753823521851
aF-0.03430440541096706
aF0.0003274488435624173
aF-0.7112557430591077
aF-0.5491019241230977
aF-0.006041452501546507
aF-0.003611523758521226
aF-4.1367509923063155
aF0.0
aF0.0
aF-0.31187102615917145
aF-0.024095577293412343
aF-1.3952954826529849
aF-0.058921157456425226
aF-0.029801443551718473
aF0.19384772432568484
aF-0.1763368881197865
aF-0.1676521825967722
aF-0.7100582021510244
aF-0.5555638099303406
aF-0.8284587343310673
aF-1.4247810525402858
aF-1.4011946409885598
aF-0.7363708119049235
aF0.0
aF-0.8689054696954388
aF-0.011696683554554822
aF-0.8118838748418327
aF0.0
aF0.0
aF-0.011088161537493577
aF-0.42790711312382607
aF-1.7763079172712626
aF-2.554103906887516
aF-0.4962470549441092
aF0.0
aF-0.18324380331225218
aF-0.12076230078878654
aF-0.0949547192283925
aF0.0
aF-0.07092352153867776
aF-0.23329397122688386
aF-0.17208609974200348
aF-0.34817313538799566
aF-0.035177504922615815
aF-4.3530695759286845e-06
aF-0.13974043327658695
aF-0.0041465139174553176
aF0.0
aF-0.032535399418820235
aF-1.641743040152117
aF-0.790250353554155
aF-0.0184628748996854
aF0.0
aF-0.16523152825636445
aF-0.17277651469472358
aF-0.012876468173462927
aF-0.21986320124476758
aF-0.05791089166894648
aF0.0
aF0.0
aF-1.5978328417196188
aF-2.4737636370696037
aF0.29368398895654085
aF-2.3603471280937858
aF1.3337699422605884
aF-0.9906107520579457
aF-0.03705705985765601
aF-0.281876723159227
aF0.0
aF-0.04323338893062682
aF0.0
aF-1.416862378923889
aF-2.3229824617898793
aF-0.8401626404287995
aF-6.194858149397557e-05
aF-0.012005097838652772
aF-0.794350636821675
aF-0.00041752948345460933
aF-0.9101970854331864
aF-0.013783463246496817
aF-0.032535399418820235
aF-0.013429362338430605
aF-0.2074396776383374
aF-2.0762926075017827
aF-0.02620925050149679
aF-0.07018241176618428
aF2.9474554071484897
aF-0.8087929862660583
aF0.0
aF-0.25785553105514547
aF-0.00581596319872146
aF-0.11438687995299233
aF-0.7697001840918902
aF-0.47154920136005013
aF-0.4227978338306051
aF0.0
aF-4.388412272697771
aF-0.024582832551706
aF-0.004537573790750788
aF-2.3405885034424463
aF-0.8087929862660583
aF-0.9782186852652456
aF-1.1746324484709767
aF-0.02888558393850895
aF-0.17208609974200348
aF-0.004667853799027602
aF-0.6264867943455028
aF-2.519340839027879
aF0.0
aF-0.26687396928633844
aF0.1948973881185523
aF0.0
aF-0.42876464240864337
aF-0.11146099620765931
aF-0.11415810619308635
aF-0.22234967900464325
aF-0.9370757436706734
aF-0.5154768502047333
aF-0.014905873973808643
aF-0.5221534275051777
aF-0.21620417934035618
aF-2.8827999519780243
aF-0.05464443617777651
aF-0.2925980119702775
aF0.0
aF-1.1804351540630842
aF-1.0484396603879558
aF-4.03927752091344
aF-4.52136353312199
aF0.0
aF-0.0027287519380154515
aF-0.0027287519380154515
aF-0.006025966572942402
aF-0.30446790905138427
aF-0.012005097838652772
aF-0.0042731553120949105
aF-1.1421424251189318
aF-0.391826064812139
aF-0.01557945195751914
aF-0.00689486298697996
aF-0.029436299096667954
aF-0.0039599123845675726
aF-0.23848856573786034
aF-1.112942787566396
aF-0.04358099232189643
aF-0.5763050097280791
aF-0.384658822250196
aF-0.5743279296550685
aF-0.42722286424138417
aF-0.0465910221291523
aF-0.031572884582614646
aF-0.5629442006596107
aF-0.09563243941801527
aF-4.765329147296259
aF-1.0379975731469757
aF-0.23486797843356824
aF-1.6185194266724798
aF-0.007059303662239268
aF0.013132333459716232
aF-2.0059086262651817
aF-0.00581596319872146
aF2.2017882377929184e-15
aF-0.45772052555681675
aF0.0
aF-0.04900202378400446
aF-0.007837381691110108
aF0.0
aF0.0
aF-4.239270544148063
aF0.0
aF0.0
aF-1.3565115524043139
aF-0.20416965526192934
aF-0.05697799771878216
aF-0.011981087642975466
aF-0.030638844417888875
aF-1.2504886516218356
aF-0.0028007072293112062
aF-0.07183515209110683
aF-0.08437591391345332
aF-0.014118607324478536
aF0.0
aF-0.003819753347590734
aF-0.007062511125313484
aF-0.0837029289211712
aF-5.132979664089959
aF-0.800665662999628
aF-0.05064149500821392
aF-0.012478588603677922
aF-1.5757539098813318
aF-1.681333460114988
aF-1.0916781195091736
aF-0.27605401163210574
aF-0.43737972289581795
aF0.0
aF0.0
aF-0.008569029569471252
aF-0.018205940365839904
aF-0.06431476208122594
aF-2.268043643692955
aF3.9243007890047052
aF-0.006364250889012366
aF-0.6831830408275705
aF-0.015502606620306997
aF-0.8005155232670735
aF-1.5217439173603853
aF-0.9880598402398081
aF-1.14360981741503
aF-1.1117357472367093
aF-0.05064149500821392
aF-0.04875136752944518
aF-0.14149110519329836
aF-0.09166722007222335
aF-0.5743279296550685
aF-0.9703124775086279
aF-0.0029727975580156767
aF-0.07304953614973075
aF-0.005476938804505735
aF-0.11122535286873114
aF-0.30416775802820006
aF-1.1741464856454678
aF-0.003611523758521226
aF-1.2744025509963959
aF-5.152752640008567
aF-0.04314692215537604
aF2.884811325455911e-12
aF-0.2925178350049269
aF-0.15445252803968818
aF-0.044551379950465146
aF-0.0999661450959915
aF-0.007837381691110108
aF-0.03346020247665123
aF-0.04418791434601161
aF-0.004089156823843771
aF-0.0027287519380154515
aF-0.4549213633686452
aF-3.006371301346719
aF-0.08669571507718966
aF-0.022483863983373355
aF1.6755389944932202e-15
aF-0.22279526954373072
aF-0.09629478435617221
aF-0.28443296497107706
aF-7.682991427644637
aF0.0
aF-0.2501541977546369
aF-1.2908680560630388
aF-0.04314692215537604
aF-0.04232081463958156
aF-0.012005097838652772
aF-0.1676521825967722
aF0.0
aF-0.03864822848325639
aF0.0
aF-0.10069962366813802
aF-0.6865477940976692
aF-0.43919002638201315
aF-0.05292180032601486
aF0.0
aF-0.7336799976518081
aF-0.47390566496220693
aF-0.005400720193622776
aF-0.43919002638201315
aF0.27451011239794537
aF-0.5672843085111947
aF-0.9565928614143219
aF-0.21730165953509367
aF-1.0920924257770936
aF-3.0827797783976516
aF0.0
aF-0.43263307995151307
aF-0.003611523758521226
aF0.1953292742240583
aF-0.08136166644506736
aF0.0
aF-0.07117287336046402
aF-0.3726978218935596
aF-0.775368030889834
aF-0.0009550734833072976
aF-1.16161709299196
aF-0.34946697596399406
aF-0.26097157333361776
aF-1.6610068314171733
aF-0.5789348320816319
aF-0.006126713559493368
aF-0.5230872302313624
aF-0.9454861164790007
aF-0.1318130797111893
aF-0.035429923791273216
aF-1.2105990347955722
aF-0.18129137062613984
aF5.758968709024995e-17
aF-0.5058245012143278
aF0.0
aF-0.9231017320591455
aF-0.07767367345091072
aF-0.21253689638238027
aF0.0
aF-1.8547778614691792
aF-0.5175449598643512
aF-0.017935555674608507
aF0.027742510535682746
aF-0.3965578041213701
aF0.0
aF-0.2750938710460842
aF-1.3579247975423612
aF-0.014693498097344732
aF-1.8052202564944955
aF-1.4356837246938268e-06
aF-0.8050180773617972
aF-1.237151473098719
aF-0.3638508133872707
aF-0.008944483619301303
aF-0.5894716185850001
aF-0.36033586314492966
aF-0.8933649161794407
aF-1.4394575111071777
aF-0.05803456806808896
aF-0.8071141832134874
aF-0.020045115157559745
aF-0.027842171252427602
aF-0.002956273463068745
aF-0.09619639064324068
aF0.0
aF-0.07334261323220664
aF-0.5227754253187616
aF-1.602252885298483
aF-0.04314692215537604
aF-1.1147884435461297
aF-0.04836252506276659
aF-0.3029624914690818
aF-1.0324253323525732
aF-0.22730058457670213
aF-0.003896995526988826
aF0.0
aF0.0
aF-0.003611523758521226
aF-0.490660554536553
aF-0.7260475805030008
aF0.0
aF-0.24357555715504328
aF0.0
aF-0.2442103450699189
aF-0.12195479851505399
aF-7.797334724525301
aF-0.006935456213575883
aF-0.14738750336284767
aF-0.008749659202366129
aF7.5433732324785465
aF-0.056085282601039475
aF-0.6528378024439021
aF-1.0239379291788788
aF-0.004454867124846406
aF-0.2968746623373119
aF-1.2837139581685253
aF-0.009826974577757948
aF-0.03239686781442789
aF0.0
aF-0.023011227464068182
aF-0.05282191455884613
aF-0.023011227464068182
aF-0.0040157973425637965
aF-0.7207618566527514
aF-0.11998536225307095
aF-0.1577181159222099
aF-0.039429764128694096
aF-1.8749865365412537
aF0.0
aF-1.8060535655129812
aF-0.11024371424095011
aF-1.0518597431095247
aF0.0
aF-8.1422137122802e-06
aF-0.5030044290863389
aF-0.028622712285901075
aF-0.0066109977208799065
aF-0.008569029569471252
aF-0.0030955637574320064
aF-0.7569240195384548
aF-0.5894716185850001
aF0.6976747475620134
aF-0.0052619741980036005
aF-0.22684598340754872
aF-1.8910922790613596
aF-0.4201115200341235
aF-0.023999291366547867
aF-0.5333086588047393
aF-0.7112557430591077
aF-0.04324931785317438
aF-0.0030463969061975908
aF-0.051852279613064954
aF-0.4564198632950956
aF-0.0320378971038531
aF-1.8468308818944844e-08
aF-0.08068221897797948
aF-0.5965117755268863
aF-0.838141542975683
aF-0.028224390623380537
aF-0.6017194807690334
aF0.0
aF-0.08497057984054533
aF-0.5428896077909106
aF-0.2771258034265065
aF-0.021368292162633314
aF-1.975938197807733
aF0.0
aF-0.3926113245813599
aF-0.2883768383010866
aF-0.3316498794694849
aF-0.3617349722104771
aF-0.05719161734646739
aF-0.8832701623202108
aF-0.6542922251862889
aF-0.06387982663825272
aF-0.010207973832217093
aF-2.350764578521258
aF0.0
aF-0.48615789540701154
aF0.0
aF-0.001269472654070235
aF-0.08454500392129592
aF-0.035602605722825476
aF-1.144268480607594
aF0.0
aF-0.09942923645054018
aF-0.025996919480252706
aF-0.07018241176618428
aF-0.05873731911970948
aF-0.9782186852652456
aF-0.03927220279123583
aF-0.7201264639718337
aF0.0
aF-0.9784780132200485
aF-0.011981087642975466
aF-0.23402551135308952
aF0.10977747701518843
aF-1.0333217800875865
aF-0.07588172204696746
aF-0.03561976635756639
aF-0.016886044972473868
aF0.0
aF-0.5132240085041693
aF-0.07757132754665343
aF0.0
aF-1.061827361157578
aF-0.0708884665585156
aF-0.21839805525918962
aF-6.527920341502911
aF-0.003046037853306164
aF-7.168183889132308
aF-0.14127886396227543
aF0.0
aF-1.7151192758589624
aF-4.4338284183347705
aF-3.7533661796715383
aF-0.794350636821675
aF-4.663094811115827e-06
aF-0.7583008153256087
aF-0.0837029289211712
aF0.0
aF-0.0780620920393689
aF-0.032535399418820235
aF-1.1624596400504343
aF0.0
aF-0.04419603671614787
aF-3.2534203457519775
aF-0.29590513222247944
aF-0.1092392384482524
aF-0.7779573441303994
aF-0.14058224085951163
aF-0.3365227740983624
aF-1.0628789397733927
aF0.12232801113614886
aF-1.713731537024415
aF0.0
aF-1.433479120903751
aF-0.0052304654544101615
aF-10.011369573728414
aF-0.3997494819642327
aF-0.3611908736151562
aF-0.008339196705136668
aF-0.0005908003004603524
aF-0.34178941506112953
aF-0.05873731911970948
aF-0.15209675632164482
aF-0.10638629433674127
aF-1.8353439361533939
aF-0.004039988827985686
aF-0.6740880584243729
aF-0.3453960953241714
aF-0.03386455062144493
aF-0.02403642761249275
aF-0.2166069665559659
aF-0.0027287519380154515
aF-0.46932953335508193
aF-0.292496603136469
aF-0.14857058439412835
aF-0.035857736020223234
aF3.6023846366417905e-12
aF-0.4227978338306051
aF-0.45134736464910324
aF-0.004460086418765702
aF-1.1817647496032426
aF-0.7201125503308704
aF-0.7999837048309119
aF-5.02809824333688
aF-1.5941006677691423
aF-0.21620417934035618
aF-0.25023701936719744
aF-0.004376818249887347
aF-0.40875685725959005
aF-0.08437591391345332
aF0.0
aF0.0
aF-0.5275736341581604
aF-1.4432917791009618
aF-0.09476480978993572
aF-0.00581596319872146
aF0.0
aF-0.04232081463958156
aF-0.07304953614973075
aF-0.23719284730104714
aF-0.007544861683682134
aF-0.032535399418820235
aF-0.32220870488350434
aF-0.08604304987100174
aF-0.015793615014446236
aF0.0
aF0.0
aF0.0
aF-0.09950512086860709
aF0.0
aF0.0003274488435624173
aF-0.45827470918198704
aF0.0
aF-0.30647629396724657
aF-2.698586827344248
aF-0.0013448794014033713
aF-5.664259406512835e-10
aF-0.0032813908676270157
aF0.0
aF-0.9379448889735363
aF-0.26815857243434643
aF-0.028622712285901075
aF-0.02543388603989049
aF0.0
aF-0.0029475441639812577
aF-0.07757132754665343
aF0.0
aF-0.21620417934035618
aF-0.11302108233188371
aF-0.28902509019423106
aF-0.007697432152681751
aF-2.0646336532053535
aF-0.9647785230603073
aF-0.17779292059859628
aF-0.004171492850013139
aF-1.4278799741398749
aF-0.006513757427892812
aF-0.03386455062144493
aF-1.2566998220950394
aF-0.16006047907530452
aF-0.08193938409519479
aF-0.08090211156223795
aF-0.5275947355920482
aF-2.4382559203386625
aF-0.023011227464068182
aF0.0
aF-0.4201115200341235
aF-0.30518380299458336
aF0.0
aF-0.04358099232189643
aF0.0
aF0.0
aF-0.06387982663825272
aF-0.062488440029043385
aF0.38678350746104717
aF-0.2925178350049269
aF-1.075455522491801
aF-0.17656546153154992
aF-0.004272922423261635
aF-0.0027287519380154515
aF8.217242626000669
aF-0.03346020247665123
aF0.0
aF-0.5743279296550685
aF-0.08107057718757449
aF-0.05239469496525578
aF-1.062059128809819
aF0.22126092629763347
aF0.0
aF-3.8558306954620565
aF-0.0028459344277306435
aF0.0
aF-0.0034420998716845562
aF-1.19427010021724
aF-0.12770163080220576
aF-0.15087387357820833
aF0.0
aF-1.0841377881609324
aF-0.9882038183259464
aF-0.002986014405187093
aF-0.14088493189139273
aF-0.7817296389230176
aF-0.04900202378400446
aF-0.3468440139880291
aF0.0
aF-0.7707430360398583
aF0.0
aF-0.22327992724000578
aF-1.0336817334652588
aF-0.0040561973927671835
aF-0.4040250406241155
aF-0.21426012310851877
aF1.0707385597374866
aF-0.017845081218426977
aF-0.005411543280183143
aF-0.7135082509318145
aF0.0
aF0.0
aF-1.4368842981955685
aF0.0
aF-0.33111558764507903
aF-0.02657913314564236
aF-0.5503825618928712
aF0.0
aF0.0
aF-0.19108899220837766
aF-1.1589588562560644
aF-0.13974043327658695
aF0.0
aF0.0
aF-1.3374374910237963
aF-0.055973112035844735
aF-0.011036933805860474
aF-0.373444711316192
aF0.0
aF-0.003414643303430881
aF-0.18641958309107082
aF0.0
aF5.041961788135632
aF0.0
aF-0.04358099232189643
aF-1.384550796976255
aF-2.2394337566367915
aF-0.024533666886602586
aF0.0
aF-0.8196151545897109
aF-0.036687968579872346
aF-0.019102056493272773
aF-1.0948511934846006
aF0.0
aF-0.0724838233976156
aF-1.6316292683006608
aF-0.4102899441151912
aF0.5844430090507133
aF-1.3810249737580162
aF-0.12753553157447634
aF0.0
aF-0.8903717962447102
aF-0.23376149421430048
aF-2.469808497672326
aF-1.875573980405486
aF-0.025079940974497176
aF-0.11024371424095011
aF-0.5094052899495861
aF-0.30876476581388373
aF-0.03066927882008458
aF-3.8052467625583826
aF-1.0181045307788141
aF-1.4392011290008389
aF-0.5840014723936144
aF-0.004799031641930602
aF-0.32009433824717937
aF-0.019371637615554247
aF0.0
aF-0.597735620557546
aF-0.48966698547622994
aF-8.1422137122802e-06
aF1.3731654345867557
aF-0.2936914259429951
aF-0.008339196705136668
aF-0.043879031611797646
aF-2.4438136541061493
aF-0.8992745697644179
aF-0.11888598775728527
aF-0.10791508823653757
aF-0.03646407599260616
aF0.0
aF-0.010207973832217093
aF-0.062488440029043385
aF0.0
aF0.0
aF-0.5176781901518058
aF0.0
aF-0.46564203424577816
aF-5.064045339997172
aF-4.810747454580544
aF-0.4313475550188769
aF-0.7631731345409092
aF-0.005476938804505735
aF-0.3888885980188028
aF-0.004528342954409553
aF-0.03822919321301781
aF-0.039508781692078256
aF-0.026954235823471548
aF-1.0792995096557831
aF-0.10184685177057376
aF-0.06569557994310486
aF-0.15331572924641917
aF-0.31124728410685315
aF0.0
aF-1.4717327764600603
aF-0.4613820648148996
aF-0.0045982161208841495
aF-0.14142911955886303
aF-0.003084107333940269
aF-0.06595915268336756
aF-0.0033070007459011894
aF-0.029436299096667954
aF-0.032535399418820235
aF-0.021368292162633383
aF-1.3533584818707156
aF-0.990039920079968
aF-0.10600754651944753
aF-0.009088891997010125
aF-0.08353552306754958
aF-0.4509262811315758
aF-0.06448356051123037
aF-1.3075118809432666
aF-0.6946379627400446
aF-1.4473234480634518
aF-0.3559256643043861
aF-0.3169061730562877
aF-0.062488440029043385
aF-0.4227978338306051
aF-0.03309813037485691
aF-9.119881626535289e-10
aF-0.044196036719032814
aF-0.0023532721224693008
aF-0.26134478501742475
aF-0.09249284177006838
aF-0.03482713416219925
aF0.0
aF-0.22503665258844815
aF-0.013032073209591969
aF0.0
aF-0.2845552638955926
aF-0.8546345342199304
aF-3.2456725666640764
aF-0.024081075842008397
aF-1.0385465580614668
aF-0.11695176866692074
aF-0.5584889439562137
aF0.0
aF-1.0398449489289143
aF-0.00041752948345460933
aF-0.020300880183723675
aF-0.12150183051322502
aF-0.21903353510125928
aF0.0
aF-0.0464643422382635
aF0.0
aF-4.431241115283516
aF-0.23953817849248626
aF0.0
aF-0.04288855804033427
aF-0.13054507414932406
aF-1.566391139257256
aF-0.02042534816668574
aF-0.24185427744673077
aF-0.2332283895581917
aF-0.028458330676407528
aF-0.01406218936960992
aF-0.006126713559493368
aF0.0
aF-0.8524198966059149
aF-2.4689516469060497
aF0.0
aF-1.4347160948852666
aF-0.2956996808465856
aF-3.2456725666640764
aF-0.4227978338306051
aF-0.016655204829993987
aF-0.6101289784122315
aF0.0
aF0.0
aF1.0052047825617914
aF-0.3653695960945902
aF0.0
aF0.0
aF-0.1762703618962044
aF-0.12447860474871791
aF-0.9101970854331864
aF-0.10880271845141318
aF-0.01735186287366492
aF-0.5586990669032068
aF-2.4745625585398137
aF-0.4227978338306051
aF-0.6332197003785882
aF-0.5816107458580658
aF-0.12268946400704388
aF-0.08573984306195055
aF-0.11116966149636719
aF-1.1421424251189318
aF-0.6960300227856159
aF-1.3198994545119003
aF-0.06186484527084818
aF-0.006908680347675326
aF-2.6640057368927725
aF0.0
aF-0.18140892688809973
aF-0.056416704708564185
aF-0.0036624920209337706
aF-0.061485426969357694
aF-0.0029444601938085884
aF-1.1436540095714922
aF0.0
aF0.0
aF-0.0030463969061975908
aF-0.9474028194037888
aF-1.9442198890111582
aF0.10273983574593175
aF-0.04358099232189643
aF0.0
aF-0.4881721240068032
aF-1.5028990905944528
aF-0.22958729235720363
aF-0.794350636821675
aF-0.08184949790430208
aF-0.4090152199336948
aF-0.40259659480970916
aF-1.2879356117223064
aF-0.033913960307075115
aF0.0
aF0.0
aF-0.11507595569630948
aF-0.06595915268336756
aF-0.7522011364908012
aF-0.8220933608208351
aF-0.9258454584168612
aF-0.9033453982256728
aF-0.008957767901138999
aF-0.449376966976247
aF-0.1252563823754583
aF-3.2489897434726167
aF-0.5510441245934278
aF0.2869710799029983
aF-0.04263174101168028
aF0.0
aF-0.28245722278229546
aF-0.9762937880770047
aF-1.8749865365412537
aF-2.965952360934162
aF-0.0464643422382635
aF-1.9839649644796757
aF-0.48615789540701154
aF-10.273461151091006
aF-2.968816664679096
aF-0.014090370109829579
aF-0.9808961325701068
aF-2.0288995734688378
aF-0.013120854246172188
aF-6.832206084537531
aF-2.234945255059072
aF-0.29801171327945314
aF-0.7817296389230176
aF-2.269468041435792
aF0.0
aF-1.6351697391101236
aF-2.725812875876116
aF-2.11179726398248
aF-2.3490082328948083
aF0.0
aF-0.30165903546053635
aF-0.9684755489807352
aF-0.02057074864255363
aF0.0
aF-0.7873478065530801
aF0.0
aF-0.06387982663825272
aF-0.2392666956946214
aF-1.2610289026861914
aF-0.25739057690395173
aF-0.42770734846724623
aF0.0
aF-1.113573932728126
aF0.8683936968049326
aF-0.09931172278479898
aF-0.6379574296891665
aF-1.3513652483246141
aF-0.02912069565008845
aF-1.80707648682197
aF-0.013783463246496817
aF-0.40860741327535316
aF-0.005411543280183143
aF-0.0575641207863457
aF-0.9684755489807352
aF-0.03400041628491947
aF-2.141979317280456
aF-0.27723432704179624
aF-0.45990747814242605
aF-0.002839776178081396
aF-0.12873481877341172
aF-0.11507595569630948
aF-1.9436420015066322
aF-0.2952652031403016
aF-1.8468308818944844e-08
aF1.1765952015166699
aF-0.2394453776679447
aF3.6023846366417905e-12
aF-0.043990783719009545
aF-1.0564941045442777
aF-0.8415048604108026
aF-0.799135868797119
aF-0.009322984533034056
aF-0.047848436654889824
aF-0.15744386234780533
aF-0.3207490038210458
aF0.0
aF-0.039429764128694096
aF0.0
aF-0.3843213669986445
aF-0.4970474021906074
aF-0.03538941703493635
aF0.16356958923942336
aF-2.6407244162156487
aF-0.017880842904235448
aF-1.5411713083938723
aF-0.004064326044856897
aF-0.002925523400990248
aF0.0
aF-1.1100577380751666
aF-1.5148710614365883
aF-0.11438687995299233
aF-0.17277651469472358
aF-0.6175545371553234
aF-4.548529452368198
aF-0.825265596964068
aF-0.16309934738556325
aF-0.003873660286597253
aF-2.543813401352969e-07
aF-0.4212537079778607
aF-0.5409529661245507
aF-0.05464443617777651
aF0.1948973881185523
aF-0.23329397122688386
aF-1.3410606790946777
aF0.0
aF-0.0033635713380876123
aF-0.5410451972481447
aF-1.1101340729275153
aF-0.6567705497499694
aF-0.02641997708373319
aF-0.0029475441639812577
aF4.2737576536147444e-14
aF-0.4227978338306051
aF-0.2553806453293554
aF-0.01795258141464965
aF-0.9925267252304608
aF-0.9925267252304608
aF-0.663296114608294
aF-0.009070714213016032
aF0.0
aF-0.0286800724307626
aF-0.14142911955886303
aF0.0
aF-0.004528342954409553
aF-0.0029475441639812577
aF-1.1073976219522266
aF-0.010207973832217093
aF-0.21050937122860358
aF-0.0042731553120949105
aF-0.15752405995900134
aF-0.05508378621845473
aF-6.733473151318357e-05
aF-0.02924608229854349
aF-0.0041465139174553176
aF-0.0032937819702873725
aF-0.005723556576733016
aF-3.523200393411817
aF-0.06609133538812077
aF-0.28729444055963194
aF0.0
aF-0.843552272802455
aF-0.4313475550188769
aF-0.2896043339896488
aF-0.1105494739456176
aF-0.06478134189459965
aF-0.024973537223386758
aF-0.060042043754400934
aF-0.004485982776322875
aF-0.7342513363435775
aF-0.008980369174517399
aF0.0
aF0.7726845496552872
aF-0.06076665878877634
aF-0.27297686946204663
aF0.0
aF0.0
aF0.0
aF0.0
aF-0.01598357365319536
aF-0.007666673213799634
aF-1.3310282824278288
aF-0.4227978338306051
aF-0.002903147094221923
aF-0.5894716185850001
aF-0.05064149500821392
aF-0.15383533573764158
aF0.0
aF-0.715623027478871
aF-6.194858149397557e-05
aF-0.26573667881411434
aF-0.11507595569630948
aF-0.5824069669400433
aF-0.028372431483467866
aF-0.0899582852951971
aF-4.301492596845187e-05
aF-5.570172516824328
aF0.0
aF-2.241465904821377
aF-0.15383533573764158
aF0.0
aF-0.008289239503047276
aF-0.8839262861452128
aF-0.6334923736168143
aF-0.32783729634723446
aF-0.0005908003004603524
aF-0.0032813908676270157
aF-1.1812760251081602
aF0.0
aF-0.004528342954409553
aF0.0
aF-0.9029297368013098
aF-0.9910557440677559
aF0.0
aF0.0
aF-0.03434242598301575
aF-0.11507595569630948
aF0.0
aF-2.11266260067773
aF-0.13533519283234832
aF-1.1117357472367093
aF-1.8468308818944844e-08
aF0.0
aF-0.06662272033640397
aF-0.09942923645054018
aF-0.1206190802940174
aF0.0
aF-0.0823730193853189
aF-0.7819581237075806
aF-0.014104969359205926
aF-0.24871993885702798
aF-1.363440737952016
aF-0.6047305878935595
aF1.1094546462249364e-16
aF-0.060883094720327616
aF-0.09765376138808142
aF-0.010774941807174518
aF-0.10333075821955197
aF-0.589471618585
aF-0.004592246625911163
aF-0.16401319261518144
aF0.12026523966183474
aF-0.5683015719391388
aF0.0
aF-0.6164216862852664
aF-0.004528342954409553
aF-0.028224390623380537
aF-0.028622712285901075
aF-0.006041452501546507
aF-0.8674978985213881
aF-0.0067989121469480196
aF-1.3031924006098923
aF-0.005543124597708166
aF-0.38902182395073287
aF0.0
aF-0.7564290323478549
aF7.735911755006582e-10
aF-0.023274553341779396
aF0.0
aF-0.026685769480486385
aF-0.2507503655562921
aF0.0
aF-0.0041465139174553176
aF-0.32009433824717937
aF-0.017076168722096708
aF-2.868083436809307
aF-0.007728314497413415
aF7.759613508307942e-11
aF0.0
aF-0.011327952026721995
aF-0.04168777242013022
aF-0.002476461013906894
aF-0.00689486298697996
aF-0.14002047155858532
aF-0.02518056250225619
aF0.0
aF0.0
aF-2.0308578881987196
aF-0.16044076964617826
aF-1.0528828522232712
aF-0.06536013027883379
aF-1.2697124229548902
aF-0.8762250699776164
aF-0.09942923645054018
aF-1.1623772422449234
aF-0.3418077145970007
aF1.7400820309030467
aF-0.08819490344350982
aF0.0
aF-0.06998954401303542
aF-0.0041465139174553176
aF-0.11507595569630948
aF-1.2806014103130634
aF-0.3143336756914964
aF-2.143336218169783
aF-0.11181743139283397
aF0.0
aF-0.30934095648773263
aF-0.14002047155858532
aF-0.004528342954409553
aF-0.4905123220292533
aF-0.01827898319013098
aF-0.5530262037513697
aF-0.3423323106468089
aF-0.012247862184033806
aF0.0
aF-0.31667211599274714
aF-0.20157331118604185
aF-0.33051359797783264
aF0.0
aF-1.1274834213129037
aF-0.9161935559705262
aF0.0
aF0.0
aF-0.6056157840715917
aF-0.03928344253304992
aF-0.012520576808152849
aF-0.3558224186234706
aF-0.04912936596435413
aF-0.271394723992431
aF-0.006263132826634584
aF6.816294412656109
aF-1.135334248812611
aF-5.066828182631259
aF0.0
aF0.6777544307381923
aF0.7970882128874901
aF8.603746672072784
aF-1.4131402035196807
aF0.0
aF-0.3809964249379494
aF10.283587171705548
aF0.0
aF-0.9029373243680279
aF-0.6973617858865481
aF0.0
aF6.265946848592201
aF36.40438645534422
aF9.556820083607084
aF-0.27588992910100973
aF-1.5601958819413853
aF0.4291961931621626
aF-8.202878262267141
aF-0.18755667122930028
aF-0.08256171728927927
aF-0.8359703532318615
aF-0.08139211357634402
aF-0.8744727209125219
aF-0.3033430781647421
aF0.43609426104476035
aF-0.018242425223750715
aF0.0
aF7.1759976026408365
aF-0.024080880203344916
aF-1.253047447110645
aF-0.855785483441747
aF-2.90678048992642
aF-0.39168882663683274
aF0.0
aF-0.05970294240592036
aF-0.5606946756337748
aF0.0
aF-0.02319624142760333
aF-0.23920273471975467
aF-0.8941164914508841
aF-1.3231259385779754
aF-0.5244491232101912
aF-0.19148681523716793
aF3.3551346826523742
aF0.0
aF1.8307990288270177
aF0.6862921376339086
aF-0.07982331315871802
aF31.44681884280242
aF-0.0009558339483144108
aF-1.484049654070006
aF8.35333084966715
aF-0.24028267785833718
aF0.3396196925386316
aF0.004208871443874097
aF0.709908296287928
aF-0.4865970283004689
aF-0.17107086766786084
aF0.22983935516916476
aF0.0
aF-0.0030463969061975908
aF-0.7095517559450307
aF11.690003871177037
aF0.29906702255176354
aF0.3530540613814764
aF-0.04306645673976693
aF-0.679507834646895
aF0.9175766860764192
aF-1.4559217353931344
aF-0.8071334199066436
aF0.0
aF0.0
aF0.21804602114160498
aF3.2860240353268257
aF-0.7279033744002357
aF1.3523709663023418
aF-2.413341720275198
aF-0.7654786275919437
aF-0.04875136752944518
aF3.3114121285274716
aF1.1548330772989353
aF-0.8251976016351457
aF-0.03290751514081042
aF-0.28729444055963194
aF1.2884026773406996
aF0.045912581426882204
aF-0.3126887240744781
aF-0.009866400715015149
aF0.0
aF-1.4899398223600606
aF4.882611807267417
aF-0.00136703636438016
aF2.036141229973475
aF5.504308955885707
aF-0.01861131937831125
aF-0.6636829126342598
aF-0.0034771327426860667
aF1.1710530481536154
aF0.25540537975398186
aF0.018579154422216672
aF-0.007963915946598682
aF0.4077344708863207
aF0.3896182405805963
aF0.056238705724719944
aF-0.02057074864255363
aF-0.04170316564301434
aF0.0
aF-0.052686257263396485
aF0.01740693995961973
aF-0.6019201730140203
aF0.0
aF-0.18298583790655776
aF-0.23300287497827046
aF-1.8572871823006498
aF2.7302588741185665
aF-0.2401127552926632
aF-0.6501694830643776
aF-0.00802148100966434
aF0.6343362573345934
aF0.005892971675146025
aF0.21811923376066514
aF-0.9828014795564282
aF-0.25477669481929804
aF0.07535523967440935
aF0.0
aF-0.004385589428744837
aF-0.009826974577757948
aF-0.04368630914353216
aF0.8183700155258132
aF0.0446001822621126
aF0.0
aF-0.0030463969061975908
aF-1.5228700879821415
aF2.995134929747821
aF-0.292789413164116
aF-0.49954349060515146
aF-0.20030968600812196
aF-0.01845488376117559
aF0.0
aF-0.35042304184318673
aF-0.390048961052319
aF-0.06432479287329436
aF-0.013235052248777841
aF1.749353654750355
aF0.589975697883332
aF-0.3946580299031409
aF-0.4502242199012238
aF0.034538145813367525
aF-0.5675397576109253
aF-1.422990608418538
aF-0.0032806240021807697
aF5.332066092715718
aF-0.07105423581010079
aF-0.036468280730512316
aF0.0
aF-0.5283181320301096
aF-0.09177740118536293
aF-0.02485770546828776
aF0.2270917697840841
aF11.853490909057927
aF-0.0050028210127121405
aF-0.6766177830486678
aF0.0465863703727739
aF9.768225258067924
aF-2.285874106925008
aF-0.3561390361069855
aF-0.02891066481802991
aF-0.8824830714097727
aF1.5315067701373468
aF-0.3703781935319077
aF-0.08220827334654826
aF8.194127839154604
aF-0.013755896397090727
aF-0.5584541397099423
aF-0.05508378621845473
aF8.078585641353133
aF-0.012876468173462927
aF-0.28729553556555654
aF-0.11486189487886943
aF-0.006516036604795984
aF-0.005895363384186923
aF-0.003532860022864832
aF0.575721870509697
aF0.05374607742519813
aF0.0
aF-0.7252716597181929
aF-0.16044076964617826
aF9.541784767480582
aF-0.9073029150168709
aF-0.30983359921712034
aF3.902337360759577
aF-0.024086491021745513
aF-0.47761811272950017
aF0.8582333122089523
aF-0.14481201823271306
aF-0.02322483096689241
aF-0.0428027809242536
aF-0.6942082061835361
aF0.0
aF-0.31907453679078457
aF0.0
aF-0.14010798468788274
aF-1.228098353329565
aF9.07470437272663e-17
aF0.8506084994548814
aF-0.6453485119143664
aF-1.1077111278211773
aF-0.25530288366733944
aF-0.007076664454221928
aF-0.03562703643599653
aF0.25344121575561435
aF0.0
aF0.7316256884130123
aF-0.42185467550828776
aF-0.05593700538433626
aF0.6135709187888801
aF0.15938125207465045
aF20.992724472210462
aF0.0
aF-0.05631029855406889
aF0.8840341845087144
aF-0.040733034980423806
aF-0.2616015137407326
aF-0.06122828373738163
aF5.433985921533809
aF0.0040710299864283395
aF-0.2925178350049269
aF-0.050993067345861315
aF0.44395922024359336
aF-0.7420798716088041
aF1.2272388621859962
aF0.34963730591274017
aF-2.4330779972930245
aF-0.846760336363681
aF-0.20157331118604185
aF-0.0428027809242536
aF-0.7667034331311422
aF-0.4864014528244309
aF-0.6988029979952144
aF1.150129504188669
aF-0.05508378621845473
aF9.07470437272663e-17
aF0.07978250722037628
aF-0.01861131937831125
aF-0.5158385426232887
aF0.0
aF-0.041954388859137964
aF-0.21042428476820776
aF0.0
aF-0.011396192518723071
aF-0.08764723206340513
aF0.0
aF-0.6116897120939233
aF0.9607283682060596
aF1.2309632202730578
aF-0.09610219478745986
aF-0.0032479487249314747
aF-0.6535347748872846
aF-0.6813967677025315
aF-0.5977906401807722
aF0.0
aF-0.5154768502047333
aF-2.267767351169661
aF-0.7630133410773355
aF-1.48074580237892
aF-0.505829851681848
aF-0.005565363791484577
aF-0.25283224251757064
aF-0.6398436913958395
aF2.551353193139056
aF-0.5638717833399841
aF-0.7055328721811867
aF0.0
aF-1.2985519124786487
aF-0.9506697693908556
aF0.0
aF-1.164076231834922
aF-0.004105214307447938
aF0.0
aF0.5091818949971559
aF-0.27261695354317156
aF-0.021497016469227248
aF0.0
aF11.873307944994162
aF-0.6412077354400771
aF-1.587543788440677
aF-0.01824027281355446
aF-0.15013617138902796
aF-0.8135101969736952
aF0.08818624353500432
aF-0.14661860887768388
aF-0.003532860022864832
aF1.262547009807833
aF-0.5743279296550685
aF14.214194796782126
aF4.651073626428754
aF0.0
aF-0.10349116562239416
aF0.0
aF0.0
aF0.26252206356782437
aF-0.5896617175383678
aF-0.7947921914022863
aF0.0
aF-2.303729102242363
aF-0.7902707242852192
aF-0.0033874102507114798
aF-0.19934756109780052
aF-0.14155760960572877
aF-0.29028613205757164
aF-1.0053545381922515
aF-0.24336601818628414
aF1.8891413316785106
aF-0.013728384604296545
aF0.09331079843510202
aF-0.7693091690790682
aF0.14959785252026964
aF-0.0714228935737395
aF0.053278263613960465
aF-0.06444731294538648
aF4.510728518892839
aF-0.19433921798648976
aF0.513732469613436
aF-0.1851212135106804
aF1.0556606314118597
aF9.451489327260811
aF-0.03508904733742204
aF-0.4746162019095946
aF-0.021756796090416742
aF-0.5005819309515671
aF-0.34678183553898523
aF0.3468890290220185
aF0.0
aF0.2994794413236577
aF-1.481219992855691
aF-0.18143731856803236
aF-0.04927342982432314
aF0.0
aF-0.003440536630503008
aF-0.3141438217415948
aF0.0
aF-0.046664744262461824
aF-1.0787773437183341
aF0.6751041284134615
aF5.073131606728333
aF-0.01861131937831125
aF0.6474434678746418
aF-0.030978409069201487
aF-0.4321030555498451
aF-0.5725012175209023
aF-0.1707135352504495
aF10.85104181945213
aF-0.35450338534982573
aF-0.10063078408936053
aF0.037487841081424285
aF9.984580460329312
aF-0.04154075319208026
aF0.6334822055598079
aF12.181226218759962
aF-0.24712988294349328
aF-0.19211709930785656
aF-2.041885251741149
aF0.0
aF20.58944176468619
aF0.07894580749999071
aF-1.617171909489687
aF0.0
aF-1.028533220494425
aF10.32220405501308
aF-0.09398941650676437
aF-0.009034467639020893
aF-1.3169907733912338
aF-0.15979964833067214
aF37.04445774226955
aF0.0
aF-2.40954061649757
aF0.35739793074445736
aF-0.5810832805929331
aF-0.007076664454221928
aF-0.32080633270351094
aF1.14914461023376
aF2.1951449190413577
aF1.8699038187636647
aF-0.08033010232238419
aF-0.059306304072898934
aF-0.023761209146354895
aF11.395021186713514
aF-0.18927220865594155
aF-1.498580158828449
aF-0.6436216334606991
aF-0.060156140842672005
aF-1.6720400540317069
aF-0.19250210351488634
aF-0.2959995201996974
aF0.011942981552871258
aF-1.2345441939207324
aF-0.15916108893594277
aF21.97389934347523
aF7.675411953883336
aF-0.6335622562014921
aF-0.04590955056878639
aF0.0
aF-0.10688139065052706
aF0.0
aF-0.9092434802944496
aF-0.810801528677804
aF0.0
aF-0.4174707835002785
aF-0.4945221478109026
aF0.01407460875746181
aF-0.09689813459153011
aF-0.0032479487249314747
aF0.193662566973992
aF-0.18329676701192588
aF-0.2268754426105285
aF-0.3057646767083767
aF0.05876371307981527
aF0.0
aF-0.7414142350527635
aF-0.679507834646895
aF18.871154339280828
aF-0.16079354866257664
aF-0.9803790579255057
aF-0.20006817671923097
aF-0.4013532897099135
aF-0.0899582852951971
aF0.0
aF-0.5989676262609489
aF-0.5397586190750203
aF-0.5409251111130796
aF-0.049930946541619704
aF0.20870676349455192
aF-0.8012390459280517
aF0.5794244957032867
aF-0.8709783279197555
aF-0.015952503221456513
aF-0.1531671202098244
aF7.130762467195678
aF-1.068331682426932
aF22.485452773884177
aF-0.014932643725173209
aF-0.0072053276115367545
aF1.1058224954149474
aF-0.0027287519380154515
aF-0.2331983170381907
aF-1.4387757172176416
aF-0.9124361923323253
aF-0.9081312976998941
aF-0.27031665587262677
aF-1.1016358095815513
aF-0.0007541742781579753
aF-0.045634643812704094
aF-0.4755224796882468
aF4.148872037592452
aF-0.2867036549135866
aF0.0
aF0.0
aF20.55146909068635
aF-0.16368516622995108
aF-1.0861785967274384
aF13.104293261241207
aF-0.1990380831497508
aF0.5520007836519863
aF0.05361953306037016
aF0.06218677791434196
aF0.36454006740938283
aF-0.06332268102177123
aF0.01130152417158223
aF-1.0427523993955694
aF-0.7553948902335713
aF0.0
aF-0.3392284712348147
aF-0.20702003834298652
aF46.29377584200393
aF32.10040459709389
aF0.05579117947439199
aF7.208251264372871
aF-0.30911737622456903
aF0.08270316173119317
aF30.960089223169238
aF-1.1202925150336573
aF-0.09218781367045367
aF-0.2319045600679764
aF-0.10537251452679297
aF-1.646252745973417
aF-0.051955709369289525
aF1.9216695081946469
aF0.0
aF-0.10745706627040279
aF-0.4807090680935359
aF2.2707562845138094
aF-0.16044076964617826
aF-0.059083194178331244
aF3.63205562172615
aF-0.003532860022864832
aF-0.055753742787041295
aF-0.03982643864048357
aF0.0
aF-0.6582249093135543
aF-0.025079940974497176
aF-0.9821433300119734
aF-0.4082084078173197
aF0.0
aF0.0
aF-3.049594609789349
aF50.35405104217801
aF3.4430628705356803
aF0.0
aF19.348104708608876
aF-0.10345252747505439
aF0.002651858386619491
aF0.08169563531811401
aF-0.013755896397090727
aF4.388337837208377
aF5.188686828895319
aF0.07342855313299244
aF-0.06452247565238882
aF-0.45113112267985067
aF-0.4733000280614227
aF0.0
aF-0.13452480461498667
aF-0.007666673213799634
aF-0.7693091690790682
aF0.6642250551826915
aF1.9512797418271726
aF1.1393021235619685
aF1.5617855524461122
aF0.2805948501732691
aF0.0
aF-0.021103564799810053
aF8.903566998763273
aF0.4218666516168525
aF1.8202026223677414
aF0.35516335338632415
aF-0.5652027508520154
aF-0.2853110949110186
aF0.24137377239008315
aF2.0284204214412442
aF0.0
aF-0.2584480897654936
aF-0.16632785755975116
aF-0.4781461309490837
aF-0.10794536544108818
aF6.317282275486263
aF-1.1934492846906588
aF-0.0070202207521919135
aF-0.17771947098789698
aF-0.34965130397521155
aF0.0
aF-0.07203295839165968
aF1.223214950722343
aF0.018822427906669752
aF-0.1762703618962044
aF-1.8533479243821254
aF-0.08710433986342066
aF-0.10488518476873997
aF0.1266797142235588
aF-0.9769536455963613
aF0.0
aF-0.4684916709334595
aF-0.041954388859137964
aF-0.6573280321268646
aF0.0
aF-0.009555367848938214
aF-0.6214984339915272
aF0.0
aF-1.135104686823731
aF-0.5042678487459726
aF-0.36632224305841055
aF-0.061249859368223414
aF-0.3273696879970544
aF0.716634608695208
aF15.619476456097043
aF-0.1622868356170513
aF-0.8188665090348466
aF-0.07334261323220664
aF-0.6702837774608542
aF-0.013448015254832192
aF-0.04644324030166432
aF0.0
aF-0.10579553142640864
aF-0.08625465367242975
aF0.0
aF-0.6583995569006735
aF0.6600660337546075
aF-0.22717435048476894
aF-0.050540212018197486
aF0.0
aF41.38367721237366
aF0.0
aF0.0
aF-0.013755896397090727
aF-0.5952411268138063
aF-0.4350766495305523
aF-0.003532860022864832
aF-0.36452886921153815
aF-0.04990870616746868
aF-0.21578342596935568
aF-0.10063078408936053
aF-0.020819334826482766
aF-0.009826974577757948
aF-0.006558268191612017
aF-0.03413682704579446
aF-0.0413504002283781
aF0.0
aF-0.04170316564301434
aF-0.5745650555000752
aF-0.6918621894409354
aF-0.2347591150967676
aF-0.0545271874463956
aF0.4693784552631773
aF-0.0013891071190543721
aF-0.2467949019709469
aF0.36750982839439533
aF-1.6598320633295716
aF-10.350000761567376
aF-0.10458208770673894
aF1.1867325721011819
aF-0.01172012380215914
aF-0.1703089760023388
aF-0.9955110041013293
aF0.8807359443383342
aF-0.4308126165362051
aF-0.34646168147915235
aF0.28602843599301464
aF-0.4242948375608106
aF-0.00844631643676815
aF0.0
aF0.0
aF-0.005025174691017789
aF0.1608138647607444
aF-0.04473489771490344
aF-0.18968190717838293
aF-0.1003987983145489
aF3.2874261553622266
aF-0.3269958948377839
aF-0.42708071504780154
aF-0.02057074864255363
aF-0.7930320566416896
aF-0.006042043370008243
aF-0.03767020930853319
aF-0.5405486535033813
aF-1.6960217819650076
aF-0.9794761128087806
aF-0.016973916487179302
aF0.00546209620205215
aF6.344017621902446
aF-1.102020054401355
aF-0.10225546460714391
aF2.795036646287443
aF-0.08940091422845586
aF2.271525946411594
aF20.34168174656858
aF-0.7725051067625291
aF0.5363383379280413
aF-0.03386455062144493
aF2.4332235062934933
aF-0.9267456771529368
aF-2.2621186726445752
aF0.12663932350489968
aF0.010347334241493554
aF-0.20197726571747682
aF0.0
aF-0.06582723441192873
aF0.0
aF-0.030938412177037126
aF0.017539008823724125
aF7.597322770401251
aF0.3529249526519043
aF-1.6374149471928547
aF0.0
aF-0.010960881929152932
aF-0.3167750423815058
aF-0.25083560381891873
aF-0.10063078408936053
aF-0.34164460291914156
aF0.0
aF-0.48082307418216735
aF0.44661480580641927
aF3.5905289142580207e-07
aF-0.16080564232477007
aF-0.07041783903657571
aF-0.41000073008494337
aF-0.508829967033858
aF-0.04170316564301434
aF14.643844440997393
aF0.0
aF-0.7405354961702818
aF0.3015351977960572
aF1.385697454503607
aF-0.006250606561166266
aF-0.006175973320227837
aF-0.38361091260401836
aF-0.13773318594929107
aF9.480707117655044
aF0.0
aF4.003131769258174
aF2.975037461190583
aF-0.4331188423189404
aF-0.3954568094058403
aF32.857249012377714
aF0.0
aF2.2862286514617325
aF3.757416312529372
aF-0.7968322110386945
aF-1.4927763784447257
aF2.2614342865153954
aF0.38831435174623813
aF0.0
aF-0.029143111205115174
aF-0.018836226937220896
aF0.0
aF21.90140542036083
aF-0.622691333875459
aF-7.866204529676427
aF0.0
aF-7.481517096723334
aF-0.1693519188871582
aF0.0
aF2.030240861002698
aF2.339877348060097
aF0.26131123997816463
aF-0.10205439347239016
aF-0.2519921794715731
aF-0.837049355311622
aF1.830264089532772
aF-0.4905139057576545
aF0.6850484412184296
aF-0.3797119829567214
aF-0.025634356822540852
aF0.0
aF0.0
aF-0.10063078408936053
aF-0.03717374602287621
aF8.901188428079763
aF-0.49607560840857645
aF-0.1301038282639929
aF0.7533016809450165
aF6.680215535734236
aF-0.16339583946852762
aF-1.3669484165687615
aF0.0
aF-0.07618616195012054
aF-3.0538530099973404
aF6.285755950639435
aF59.41241417039039
aF32.902879648277
aF-0.5061794070497768
aF63.84171331474476
aF6.636050271932867
aF10.752379218575317
aF-1.5736651914255273
aF37.755065664277524
aF3.728032378635383
aF-0.510184807429349
aF1.2716238127690027
aF0.1284072000620802
aF-0.1682613870491812
aF-0.15631900189359685
aF10.059107596462956
aF70.20086881514226
aF67.03359298518527
aF24.85463369304138
aF-0.19882898181876413
aF-0.02070608032459705
aF-1.1247981174387855
aF-0.14330572473299028
aF-0.008316627326577874
aF67.44516433118709
aF9.295777890042961
aF-0.11415810619308635
aF-0.06478174165623934
aF0.0
aF0.9387054919971097
aF-1.0239379291788788
aF0.5145910132743605
aF-2.546411734594976
aF10.064199272802206
aF0.04356986596386502
aF62.844298584213576
aF-0.9890748954409041
aF0.0
aF34.45266155443803
aF1.6526938532717028
aF-0.3747787549156765
aF1.9599677821438934
aF-0.2436776624670327
aF71.40549966924857
aF25.030276323605342
aF68.94720419979855
aF0.4285345805869396
aF-0.2224205344881723
aF10.36241773537964
aF1.7724487118008334
aF-0.25229816045815223
aF-0.054034383708821736
aF-2.012881452564168
aF-0.4476590091436458
aF10.985805229352703
aF22.535313727715167
aF-0.7065702117291864
aF-1.5736651914255273
aF71.35030537571235
aF-0.0405740974869318
aF-0.6610848586826171
aF-0.3360297249928783
aF-0.275341475458421
aF0.2877553983790134
aF7.2369494038788895
aF-2.902751830511992
aF-0.19929436978504725
aF0.39674283408481803
aF-2.648007373377197
aF-0.008092493093252074
aF-0.011790726768373979
aF5.5874539381916435
aF2.4689472633200853
aF3.7303887854551596
aF70.66091219523727
aF59.404102082056475
aF1.8628307413319534
aF-1.3249796301639936
aF-0.06478174165623934
aF-1.3232565073364102
aF22.820992528387265
aF48.795462970637786
aF44.57778601459832
aF-1.0124346183933055
aF-1.1247981174387855
aF1.8734930352330184
aF-0.9360689991955893
aF47.041160985363206
aF0.11764212156478993
aF5.564163254371647
aF-0.15667270564905486
aF8.957010407188543
aF-0.11789269301765055
aF53.744547309272576
aF22.602301085447504
aF4.127517415886534
aF-0.03162912111447922
aF-0.14672325322751106
aF9.983261468260604
aF1.2029462964293949
aF63.84193889739854
aF-1.1417356426380012
aF-1.0239379291788788
aF15.269999541318592
aF1.880954821669899
aF0.08502587967284352
aF63.098709638667884
aF-1.5736651914255273
aF47.13046718554207
aF0.1738044007657484
aF69.24384379462707
aF69.78727049625276
aF16.782466052757503
aF11.05731575738972
aF3.783322542453517
aF-0.08888416899701954
aF-0.0436876735037608
aF59.17124708857243
aF-0.47903544804088777
aF0.5793708124338205
aF19.30694765789497
aF0.0
aF74.00154449280907
aF0.0
aF-0.2034489083475042
aF8.71842509112123
aF-2.0284397860473864
aF63.84171331474476
aF-2.4192818112016754
aF19.617820259193113
aF-2.475514261304017
aF63.845251619117064
aF-0.6583768088787204
aF-1.7040848302138836
aF12.413157522187339
aF-0.4371136745594715
aF-1.7726952476877493
aF-0.003575552693248396
aF0.3795687259417658
aF14.013676526092803
aF0.9404636894641095
aF0.0
aF3.7303887854551596
aF-0.49084407594389806
aF-1.460594987962323
aF0.0
aF2.624438991250811
aF0.9204868912040175
aF-1.5736651914255273
aF69.36938334636328
aF3.731413429062694
aF2.174165599500424
aF-0.3809964249379494
aF0.6461088341740004
aF0.853137007660423
aF0.6401686864803934
aF-0.007292422470227987
aF0.11764212156478993
aF-1.5554685941783295
aF59.404102082056475
aF0.0
aF-0.39350156943772846
aF3.909413372576726
aF1.0210968774748173
aF49.34915489434022
aF-0.1991757636621709
aF71.63036649010374
aF2.398207745337166
aF0.09404688970177642
aF0.953384571071517
aF0.8709306993038145
aF14.802604322224402
aF63.845251619117064
aF-1.3547871324281349
aF4.967294982635079
aF49.84793387158689
aF63.84193889739854
aF-0.3747787549156765
aF-1.3489167938677125
aF-0.052577840112735016
aF0.9714651942184714
aF-0.2454598460504817
aF-0.2811717740799723
aF0.0
aF-0.14672325322751106
aF69.4380218189426
aF4.217565656536525
aF8.491479100400836
aF43.9166652472738
aF-0.5478348354650294
aF-0.07255903510759149
aF17.326101052563114
aF22.10340872138735
aF47.10918047574134
aF1.0242630943787174
aF-0.08029378627873025
aF-0.11847125076472877
aF-0.7540607253898043
aF47.107797539213124
aF-2.110209635226577
aF0.7924465744946458
aF67.71890560512142
aF35.15891688197688
aF32.69056558241388
aF1.653752257122012
aF-2.509336925305269
aF4.1104669754378715
aF69.1966022889984
aF69.12022916259903
aF-0.046557457152568635
aF0.0
aF-0.007020220752195019
aF-0.9676606993178897
aF2.517753521171918
aF-1.182848614476558
aF-0.012156309871325006
aF6.73126345508485
aF0.0
aF-0.8501485881603236
aF-0.7683920036439141
aF64.19791264195473
aF-0.3182272430743215
aF-0.025625221180314562
aF9.581533029211695
aF-0.970493062330568
aF-0.05957878558635618
aF16.825378791479253
aF-0.13434054898406553
aF-0.8939409977581395
aF-1.0387717796112466
aF0.31938316242419823
aF69.5316658208488
aF1.056931449264188
aF22.193581946865034
aF48.278445574436546
aF4.493995377909499
aF5.238000872293018
aF1.0861466496500136
aF-3.4169586832986845
aF0.40955101804028066
aF-1.689686056164452
aF69.19089222128942
aF0.31149104451302423
aF48.26727495002433
aF43.60328818454805
aF10.052218766578843
aF1.6679731204181159
aF-0.009826974577757948
aF0.17823189991676416
aF-1.0471376979497453
aF34.31921151298162
aF30.62844904227074
aF0.0
aF63.09805943330373
aF1.340981569580008
aF-0.3162723607101751
aF0.1300191896324707
aF-0.18420753364710585
aF0.8796120671233326
aF-1.0333055735980363
aF-1.3871695870480953
aF2.1163583806290247
aF69.00562956906333
aF0.07876528879531804
aF1.0416464603504278
aF-0.8448545955187672
aF0.6555610300268176
aF-0.8999652440522679
aF-0.6536147774181581
aF63.09805943330373
aF10.4057185662831
aF0.0
aF-0.5983226129723708
aF-0.019313590134796887
aF1.1658185680221522
aF9.509136434368855
aF1.7827593533740895
aF3.6416176175977535
aF6.498713626791684
aF69.14396737456232
aF-0.8068620226832971
aF-0.13812158482337725
aF0.7138483373520557
aF11.986434777076823
aF-0.2012399338909784
aF0.0
aF-0.9767045182303278
aF63.842114370563074
aF0.16278894218407744
aF-1.1247981174387855
aF16.512180146984054
aF-0.10386843707241511
aF-0.6176793236321031
aF-2.312656212228834
aF-0.08454500392129592
aF0.29073815117841906
aF5.215431860975003
aF22.823704534356597
aF38.83009140788806
aF-0.9950816976080462
aF55.08392609569614
aF-0.31812168262209173
aF0.0
aF1.2595584893481144
aF0.4594020068640868
aF1.542267484159205
aF-0.7065702117291864
aF63.84547720177086
aF0.0
aF-0.48703030393096575
aF10.275392538048546
aF63.09805943330373
aF2.4020319856410755
aF20.937988009500092
aF-0.23992523999434842
aF5.221981042830287
aF5.379198823658446
aF-0.17229061021299286
aF6.18995831023275
aF7.2667963595881
aF-0.9064666080061379
aF-1.1144752507647286
aF5.8455492861695495
aF14.328789440579504
aF-0.8567879045369404
aF-4.49174745604675
aF69.20886026735614
aF-0.46581878319846565
aF-0.15667270564905486
aF0.08502587967284352
aF-0.013032073209591969
aF-1.732018021968396
aF-0.5181303048898447
aF28.91817149655357
aF0.46576593842828207
aF3.7303887854551596
aF-0.3747787549156765
aF-1.0372109568570957
aF68.49175984528415
aF2.936605685546504
aF0.0
aF-0.004105214307447938
aF64.72679305250398
aF0.23490154794875723
aF71.35344623791848
aF27.845647523728122
aF-0.004039988827985686
aF-0.22958729235720363
aF-1.0156917683160351
aF1.2083166596645902
aF-0.7319665927803679
aF-0.46851207716984433
aF0.3853495129286031
aF2.4689472633200853
aF10.778983294606372
aF-1.4408800475144534
aF-0.4476590091436458
aF7.702285142626901
aF51.79127016595262
aF10.522862433952074
aF-0.642105098533638
aF0.08502587967284352
aF-1.692146421337587
aF-0.15667270564905486
aF2.247859055126822
aF71.35361634653815
aF-0.08888416899701954
aF0.11764212156478993
aF2.0802231518209653
aF-0.13767964215425516
aF19.121099332160835
aF-0.8990493009401376
aF11.987958731615041
aF4.464741132517848
aF-0.9479248624668345
aF0.09267374465859668
aF10.062000782211129
aF19.996199132944476
aF0.11764212156478993
aF63.84171331474476
aF-0.478336088737557
aF47.107218746333196
aF5.241585796493769
aF-0.6633778461144479
aF19.348659764890378
aF8.492199434631296
aF24.089572267262543
aF10.0441668048134
aF3.6147368465429253
aF-0.2092744117635025
aF2.4689472633200853
aF0.023490502204159838
aF13.866827278294155
aF0.814432076352772
aF0.03587927522083059
aF-1.7312046753382135
aF0.39986097698056594
aF8.762316695195747
aF-0.18542984654816771
aF0.0
aF0.29567687982291
aF6.4095288509728245
aF-0.011790726768373979
aF0.9164993617943977
aF0.15500176997978107
aF-0.1754758929983251
aF-0.11940238532760818
aF0.0
aF0.0
aF0.0
aF1.5796883597440181
aF-0.009826974577757948
aF0.6461896719565241
aF1.384925430938791
aF0.9205303612826059
aF1.3881069963318347
aF0.0
aF-0.06864823957556174
aF6.51592627723164
aF1.0329537028336222
aF0.08072305034746337
aF0.12161677821117128
aF0.15500176997978107
aF0.08349758513005529
aF0.0
aF0.0
aF0.0
aF11.115315221680756
aF-1.725801278183573
aF68.70573286333197
aF-1.4383531334136044
aF63.845251619117064
aF-0.10761165855923437
aF-0.27852388425069663
aF-0.0614925303266682
aF56.126965097650626
aF0.19079599427965832
aF3.7303887854551596
aF0.9266354090036076
aF39.81287818127271
aF0.0
aF9.256944202924966
aF-0.25672382878213623
aF-0.4000818041990999
aF0.11771232205121826
aF1.0666430866949141
aF-0.04545228777602853
aF0.0
aF1.0329537028336222
aF59.41265855159863
aF0.8386443080890412
aF0.07245071433216149
aF1.7744099787651366
aF0.8796120671233326
aF-0.3182272430743215
aF59.404102082056475
aF-0.1269346806734295
aF7.391133317934088
aF7.485017656263345
aF71.35344623791848
aF0.0961306983028513
aF10.059224345216828
aF-0.09369076829224322
aF0.07622443821041752
aF0.6901521661429345
aF-0.2931092122695151
aF-1.9992326792627144
aF0.5780688153893829
aF-0.7649158407586051
aF-2.206196952050673
aF-0.204629072858777
aF8.923465774937217
aF10.106495995789746
aF-0.09224658648150157
aF-1.9736505785623242
aF0.0961306983028513
aF1.4384998320255917
aF15.681271332772958
aF5.215431860975003
aF2.167818568893423
aF1.347185704774348
aF1.067805820102299
aF2.372570600696378
aF-0.009826974577757948
aF55.722731334758485
aF69.78598487361178
aF-0.4424622910680227
aF1.9668701816962157
aF-0.7764927164907741
aF0.0
aF-1.1167588088665672
aF-0.9183949544253159
aF4.230930728548654
aF-1.7611902040963332
aF2.098938629162213
aF-0.35972250135952394
aF-0.009826974577757948
aF-0.15667270564905486
aF-0.011790726768373979
aF-0.31881524127154365
aF-0.09690837653880291
aF-0.4344943644278548
aF0.0
aF5.830172341593065
aF-0.025079940974497176
aF62.11187902269887
aF0.7642954591299669
aF0.0
aF-0.351977019910359
aF-0.011790726768373979
aF-0.652120155552711
aF46.561332873019296
aF-0.39350156943772846
aF41.02886221571153
aF0.0
aF-0.02973243654083192
aF8.442869746613178
aF-0.98907630607627
aF-1.2197595935465821
aF-1.3637485732578056
aF-0.009826974577757948
aF-0.009826974577757948
aF-0.17879616153730798
aF0.12161677821117128
aF-0.11088587675850049
aF0.0
aF0.11771232205121826
aF0.0
aF-0.2754206007285892
aF0.0
aF0.0
asVmu
p9
F0.001
sb.