ccopy_reg
_reconstructor
p0
(clrsgd
LogisticRegressionSGD
p1
c__builtin__
object
p2
Ntp3
Rp4
(dp5
Veta
p6
F0.01
sVweight
p7
(lp8
F-0.019919290735006416
aF-0.01
aF-0.009999998885144029
aF-0.009994952764997211
aF-0.00999997820830735
aF-0.06840795456135416
aF-0.009552705537204796
aF0.008249062672348163
aF-0.0299999962641221
aF0.0
aF-0.05862803456069601
aF-0.006864790156911859
aF-0.01
aF-0.03817580209073573
aF8.881784197001253e-18
aF-0.029906477496995668
aF-0.019997040829113577
aF-0.008156226514075517
aF-0.0074971742810081956
aF3.110636193071059e-12
aF-0.045775979822834906
aF-0.009143105828193162
aF-0.009962720362682155
aF0.0
aF-0.03665589386194557
aF-0.018535449252057346
aF-0.009314163131308806
aF-0.016442120712578733
aF-0.006079568539545682
aF-0.026641004473759413
aF9.212934648783365e-05
aF-0.00263614531100592
aF-0.01585984360613822
aF-0.08583111670665934
aF-0.0035748980697584754
aF-0.007019497578385801
aF-0.00287591897483906
aF-0.005933472382903718
aF1.6146150998846975e-07
aF0.0
aF-0.01
aF-0.01999809175858268
aF-0.039907393110727635
aF-0.019365305079608538
aF2.790648735234713e-05
aF-0.009999996750921584
aF0.0
aF-0.009993714738212808
aF-0.019413723102390562
aF-0.005941590418807537
aF0.0
aF-0.009871124853559616
aF-0.03190245364987785
aF-0.022885182878716596
aF-0.032158941755559584
aF-0.019989170177598582
aF-0.06475843521376314
aF-0.05180414943616888
aF1.4882277632466413e-10
aF-0.03769628877988421
aF0.08713343042399763
aF-0.04995266089364937
aF-0.08467827523842843
aF-0.019762410963137248
aF-0.004817402480625283
aF-0.009593973966453643
aF-0.009884876052286875
aF-0.0072320225871611585
aF3.0596671543737796e-05
aF-0.04647874543455094
aF-0.049990562267118906
aF0.0
aF-0.009999997313091775
aF-0.012485167925214929
aF0.0
aF0.08858906712972475
aF-0.019885871925659587
aF0.013454118463909422
aF-0.0077568829835626026
aF-0.0012497360880106322
aF0.0
aF-0.009999979287013997
aF-0.009902979424769368
aF-0.00955158867632113
aF0.0
aF-0.018589605181553417
aF-0.019522267628218647
aF-0.019924659212277904
aF0.0
aF-0.00897297118556944
aF0.029636522989392976
aF-0.009402193289823581
aF0.0
aF-0.05529054451680319
aF-0.10798650750855851
aF-0.00908899735317427
aF-0.026205870778656725
aF0.0
aF-0.0037487505853296354
aF-0.01998216792397929
aF-0.0297521028911268
aF-0.019779242345091205
aF-0.06361950944419777
aF-0.005933472382903718
aF-0.00899484422589853
aF-0.019950880508223596
aF-0.18133436873533534
aF0.0
aF-0.03172801853226793
aF-0.018599434659032563
aF-0.008308531441052147
aF-0.0053602599719583316
aF-0.008672430576943842
aF0.023841369719150927
aF0.000546685335092506
aF-0.008600476182206183
aF-0.077406428476156
aF0.0
aF-0.03976916741738495
aF-0.04768971378989701
aF-0.03666587892075979
aF-0.07977729981894288
aF-0.08101490214587179
aF-0.009999997313091775
aF-0.0296925939317203
aF0.0
aF-0.009997939198575773
aF-0.007179738576749111
aF9.530246591893388e-10
aF0.0
aF-0.007292484255129898
aF-0.00908899735317427
aF-0.0609252044477269
aF-0.006375568495820617
aF-0.019997194897602277
aF-0.04330267114341625
aF-0.0077957426149899214
aF-0.009999995681215398
aF-0.0029686948040001395
aF-0.019930510764941175
aF-0.11237163220724483
aF-0.027787044554256558
aF-0.033344196038608324
aF-0.005252341010384741
aF-0.01
aF-0.0709073374201186
aF-0.006236610822427455
aF-0.1403936891794181
aF9.530246591893388e-10
aF-0.005781955398085856
aF-0.014205786384071557
aF-0.009884886289988173
aF-0.006142787429381506
aF-0.009999982812254239
aF-0.02617566354280481
aF-0.029456000068285793
aF-0.03427441221114775
aF0.0014284692371994512
aF-0.04159072436329154
aF-0.019996487000929937
aF-0.005062906882159609
aF0.0
aF-0.05991766519559669
aF-0.009997432118836956
aF-0.019976648744982766
aF-0.05459644388398817
aF0.0
aF0.0
aF-0.008658698889314542
aF-0.015486319916450338
aF-0.009881960255221148
aF-0.1291671478809038
aF-0.029993570755995708
aF0.0
aF-0.007882017420109353
aF-0.02660386518457507
aF-0.009936837548965419
aF-0.03052980868082298
aF-0.02281223312939234
aF-0.008314547378441929
aF-0.043050177007047365
aF-0.01998483330046999
aF0.0031853527436663176
aF-0.08147295672290575
aF0.08287703866081031
aF-0.03726920398594715
aF-0.007726636836298234
aF-0.02936660960168139
aF-0.14654344785604193
aF-0.0038397881659130773
aF-0.009999999152195472
aF-0.24797679576273216
aF0.0
aF-0.12314803384661525
aF-0.005062906882159609
aF-0.04434581597455641
aF-0.01906375064711993
aF0.0
aF0.05571638954431466
aF-0.02797251989881054
aF-0.01691160096860262
aF-0.00974879686806414
aF0.03947912871041369
aF-0.0060253322867537245
aF-0.00876096482346208
aF-0.0077225060033553885
aF-0.01865424044275865
aF-0.009997509717253139
aF-0.009999999987558066
aF-0.013343261852802582
aF-0.007893037974863085
aF-0.010070115786151376
aF-0.01
aF-0.035835812543980536
aF-0.018915465710459593
aF0.0
aF-0.009971600752254258
aF-0.01996056304336432
aF-0.09678036550285762
aF-0.041685181765771545
aF-0.0961007978321335
aF-0.033764650266130465
aF0.0
aF0.026511722928454728
aF-0.006842215012635419
aF-0.009984928781777492
aF-0.029709343399819656
aF-0.10176927370418025
aF-0.04375569109962342
aF0.00042051011376176506
aF-0.02435330743380716
aF-0.008227141010212422
aF-0.0072320225871611585
aF-0.007195667196586458
aF0.0
aF-0.0077225060033553885
aF-0.007245621749392338
aF-0.008713375167596751
aF0.0
aF0.010497968058141592
aF-0.02853855107775284
aF-0.008898131100778858
aF0.01728607204536027
aF-0.004069513915645032
aF-0.029494682976996017
aF0.0030186939747636043
aF-0.20481379136665512
aF0.0
aF-0.08271500465550179
aF-0.009998987338013311
aF-0.01664464097757671
aF-0.009999763307082372
aF-0.008685863125623307
aF-0.008949289698615602
aF-0.029999029625687512
aF0.00042051011376176506
aF-0.0884084167120153
aF0.0
aF-0.005546090837903493
aF-0.03434652336892442
aF-0.019995524151578233
aF0.0
aF-0.009999999999791483
aF-0.008227566045566112
aF-0.12088305653662758
aF-0.019997485590670366
aF-0.009909581361518016
aF-0.009959602832755064
aF-0.009960768001982603
aF-0.015338492001170087
aF-0.09797068197665229
aF-0.0021222314797410325
aF-0.005448780726944669
aF-0.01889145333952763
aF-0.00935027041159879
aF-0.04410077467340813
aF0.0038920019786912495
aF-0.0067523623713837515
aF0.0
aF-0.0070553861544705564
aF0.0
aF-0.015470047945530828
aF-0.11815822740932222
aF-0.009999999441517589
aF-0.03795394579518605
aF-0.00924958030441845
aF-0.014918364629109705
aF-0.009999999999999905
aF-0.018071253177454435
aF-0.009757773872206721
aF-0.008593047058506218
aF0.0015718258653782523
aF8.74370051690332e-05
aF-0.015827724074383976
aF-0.009999923348540943
aF-0.042765876613553834
aF-0.009367338958678067
aF-0.009989268070698465
aF-0.007066435514125641
aF-0.042289226534739224
aF-0.01666531050616063
aF-0.00999410933924434
aF-0.009369644121239744
aF-0.023907260706166635
aF-0.009944640348719181
aF-0.009971600752254258
aF-0.05648906035218282
aF-0.0085292037003151
aF0.0
aF1.4882277632466413e-10
aF0.00042266386576943037
aF-0.03236894198776835
aF-0.009999384207341316
aF-0.009972787004354089
aF0.004252198377743826
aF0.03476031779174401
aF-0.02821962292369702
aF-0.05695745088411015
aF-0.0066837679126902005
aF-0.0072320225871611585
aF-0.00999999996373185
aF-0.029996250262534288
aF-0.014106959182049812
aF-0.009999999999999998
aF-0.07950801517788908
aF-0.016549333941161877
aF-0.03747051650942412
aF-0.02998483025765645
aF-0.0085292037003151
aF-0.0772127114448525
aF-0.01
aF-0.009984498981627139
aF0.0
aF0.0
aF-0.00422171126336346
aF-0.2569127280303713
aF-0.019784664481884102
aF-0.005107622925552592
aF-0.009508587463367737
aF-0.019998764309579066
aF-0.01991161834802126
aF-0.004224740835630991
aF-0.007213369484867236
aF1.4497343102185533e-05
aF-0.009951167241572642
aF-0.028226722003027248
aF-0.02487362910568839
aF-0.0033731298152499577
aF-0.0599972303397863
aF-0.06471033347487107
aF-0.12097205033362202
aF-0.11477063615158857
aF-0.009273784479247644
aF2.8952162307871456e-06
aF-0.02178999313584234
aF0.0
aF-0.21043173940915222
aF-0.015758286461415135
aF-0.005983921969390476
aF-0.007245621749392338
aF-0.019035939782916747
aF-0.009608770540308577
aF-0.05771632662367632
aF0.0
aF-0.00876096482346208
aF0.0
aF-0.009999999970885323
aF-0.04574261728676306
aF4.648888166131848e-05
aF0.001578243149538312
aF-0.2025783339472116
aF-0.08931878516757323
aF-0.0257416929864832
aF-0.03465624922979444
aF0.0
aF-0.029936868109203527
aF-0.009999995199418275
aF-0.009876047538892712
aF0.0
aF-0.002396150607587978
aF0.0
aF-0.009784664481884102
aF4.4408920985006264e-17
aF-0.02565502910709413
aF-0.019233658753951346
aF-0.023122375610750628
aF0.780678888514949
aF-0.02773759666097727
aF-0.009876047538892712
aF-0.039031368593636075
aF-0.009999147047495612
aF-0.00999877159082596
aF-0.009999999989847684
aF-0.014754649587772974
aF-0.10802215145388186
aF-0.044637888970102936
aF-0.007874332440903692
aF-0.028466104303601022
aF-0.019236954529592714
aF-0.027977993850954144
aF0.0
aF-0.029248709237747077
aF0.0
aF2.6650635032154925e-11
aF-0.052417928338797305
aF-0.007449803051614045
aF-0.00548371141984354
aF-0.08683058977714338
aF-0.009953739129845382
aF-0.009999531309586286
aF0.0
aF-0.05232011813354187
aF-0.009999999867394622
aF-0.018991922253500278
aF-0.01953487112874969
aF-0.036065286275218655
aF-0.029381123880285926
aF-0.005618113220174655
aF-0.1471238876882322
aF-0.012244870284133683
aF-0.02561055320353566
aF-0.009994371488580551
aF-0.00876096482346208
aF0.0010188967526749593
aF0.0020741757177699448
aF-0.009998544314087898
aF2.6589224428900105e-05
aF-0.17141868485088724
aF-0.060570792751580366
aF-0.08330204844780256
aF-0.016684562398939548
aF0.0
aF-0.00924958030441845
aF-0.0154580087833965
aF-0.001898582389723177
aF-0.019995800442807427
aF-0.00999589352290186
aF-0.019896704975196883
aF-0.06395981316379744
aF-0.010500466196183904
aF-0.029309698557068022
aF-0.023832217291039477
aF-0.009974320075727136
aF-0.0019340239859447202
aF-0.16337188790768184
aF-0.028111074414258797
aF-0.03226730815552912
aF-0.09683058977714339
aF-0.008876469809277268
aF-0.0015052904267083464
aF-0.015138531619163946
aF-0.018307941848989536
aF-0.08284116795516838
aF-0.05288684480161241
aF-0.0026687394615336167
aF-0.003059016814620047
aF-0.009999972899804862
aF-0.09717885277410417
aF3.7072433476137424e-06
aF-0.01971117809181063
aF0.0038867234702834085
aF-0.009785150946080106
aF0.0
aF-0.019365252998046346
aF5.70481714379234e-08
aF-0.014995393806697867
aF-0.028787311372734707
aF-0.11241911291269933
aF-0.018949289698615604
aF-0.008593047058506218
aF-0.01821319578952881
aF-0.0074186299481586275
aF-0.05958329571499211
aF-0.009999826307109674
aF-0.00998860355013059
aF-0.02684844397074204
aF-0.019843553898109132
aF-0.01690915487325481
aF-0.03349014804855585
aF-0.006472968187143472
aF-0.008593047058506218
aF-0.007978747050640453
aF-0.009997419159154008
aF-0.03860288121328892
aF-0.0027343656999538443
aF-0.029840046144907498
aF-0.08531489426276945
aF-0.015029909314890328
aF-0.04459044291461344
aF-0.011675531559950892
aF-0.027708015817605756
aF-0.01811613435138596
aF-0.015470047945530828
aF-0.016253388201734047
aF2.8952162307871456e-06
aF-0.009730965642827959
aF-0.007960893861655303
aF-0.00922419364907527
aF-0.007978747050640453
aF-0.009359909183587532
aF-0.0792360479961755
aF-0.006669528409900625
aF0.004614124378769584
aF-0.04056260188865994
aF-0.03684886404534666
aF-0.012268906836788903
aF-0.04642499261930674
aF0.029264606909417876
aF-0.03787029695184259
aF-0.009998926963843033
aF0.0030781454415867624
aF-0.054758603311845525
aF0.0
aF-0.01901923533342546
aF-0.002045323304578931
aF-0.00980380292254331
aF-0.00876096482346208
aF-0.009999972899804862
aF-0.00999552416173055
aF0.0
aF-0.02628184346220491
aF-0.12568567141349024
aF-0.15412995665580473
aF-0.06052870929215637
aF-0.04943777093995609
aF-0.04781813732459621
aF-0.09636387780958657
aF-0.009999999999791483
aF-0.009620073028025346
aF-0.015479235581574088
aF-0.00876096482346208
aF-0.00862544525148002
aF-0.009621334314668719
aF-0.019851336860309914
aF0.06827289880840752
aF-0.018876492781760065
aF-0.06138430116717065
aF-0.02449241172269981
aF-0.00757102050475123
aF-0.05778237647468508
aF-0.026958363040454826
aF-0.056280294622916914
aF-0.01977102213412942
aF-0.019999531126229268
aF-0.01776062046276986
aF-0.009468656459937521
aF-0.042462699189072486
aF-0.009999968831498583
aF-0.012132796961457581
aF-0.03511572609733612
aF-0.05277538172254976
aF-0.00950488280596032
aF0.0
aF-0.009999999999696784
aF-0.028250958778532058
aF-0.0559586203688523
aF-0.03638248222912039
aF-0.01999901477315129
aF-0.00736387290228732
aF-0.06705763898075788
aF0.0
aF-0.009162836063873993
aF-0.09468024017067461
aF0.17661005033001032
aF-0.006853561338877993
aF-0.23765439241913677
aF-0.02470092677655192
aF-0.009999999995343208
aF-0.07717317895994101
aF0.0010005991672911965
aF-0.018250826181252747
aF-0.012166264366940627
aF-0.29811754208151414
aF-0.00876096482346208
aF-0.009999972899804862
aF-0.009997293775125808
aF-0.019978241795190258
aF-0.003856235341048783
aF-0.037458449702459394
aF-0.11602394080278491
aF-0.025348402874389414
aF0.0
aF-0.03307217635164156
aF0.0
aF-0.04166525467972004
aF-0.02208117536242727
aF-0.01976879082141233
aF-0.040711355257905354
aF0.0
aF-0.035595040605099534
aF-0.004104430839101748
aF-0.009482798405140021
aF-0.009175381095497617
aF-0.01
aF-0.0544164255109705
aF-0.009999967396571092
aF-0.03300505942892929
aF0.22463227131652053
aF-0.009997335290627836
aF-0.009951643761228361
aF-0.009958104744968457
aF-0.019221204577319385
aF-0.009412325420437405
aF-0.004647382141178788
aF-0.03939940008435231
aF-0.06940184611685545
aF-0.15757110522500103
aF0.04945962445961782
aF-0.009252285658028504
aF-0.009045307618797169
aF-0.02782850463045425
aF-0.009999999999971044
aF-0.1216999599879177
aF0.018380786266240245
aF-0.07684148844910065
aF0.0
aF-0.003329999999985355
aF-0.017507414094299015
aF-0.019157543475304302
aF0.0
aF-0.00999927480080568
aF-0.02815160928037206
aF-0.00999036267904539
aF-0.04350182897439337
aF-0.009974153489156885
aF0.0
aF0.19237490651556308
aF-0.009739022682510317
aF-0.009906751501651214
aF-0.107317826410769
aF0.0
aF-0.04749496885675272
aF-0.021527871324731704
aF-0.0409967184767553
aF0.0
aF-0.00998185067614636
aF2.5335289421946073e-15
aF-0.029444803648514713
aF7.654818727065638e-05
aF0.0
aF-0.018190034037102065
aF0.0004267437033573085
aF-0.018765053522101845
aF-0.0034915374443671653
aF-0.007499071307189598
aF0.05240583922422945
aF2.4904549390003526e-06
aF-0.05454629258953485
aF-0.1114566112112696
aF-0.002923449745174419
aF-0.04944116249493527
aF-0.007918490132496967
aF-0.007253879164320675
aF-0.03699542559859017
aF-0.01911215151563881
aF-0.00988211772051324
aF-0.021008896003092168
aF-0.1927011188356506
aF0.0016193353898525209
aF-0.07757119624159516
aF-0.11148099170052951
aF-0.0881478407958768
aF-0.035557829286877854
aF-0.008941430288058591
aF-0.02520692922660784
aF-0.005168725181389476
aF-0.06825469398350344
aF-0.02498927249307576
aF-0.09526276384938236
aF-0.4612157362273174
aF0.0029092282666819537
aF0.0
aF0.0016193353898525209
aF-0.04613981605151325
aF-0.035465979224723956
aF0.004101214589309972
aF-0.019571427094795667
aF-0.057488811687322984
aF0.0
aF-0.03924026146674452
aF0.0
aF0.0005510141471357544
aF-0.04871285957240203
aF-0.008147694299955687
aF-0.009997611670527795
aF-0.016267620900178657
aF-0.10166376187160205
aF-0.047738185183610664
aF-0.2101234572002595
aF-0.06934419871137429
aF-0.0020217719286949177
aF-0.008253917486613437
aF-0.00999967108722795
aF-0.031672459925535495
aF-0.05723086276213276
aF-0.13146029367312426
aF-0.9480601715925092
aF-0.009999999972789657
aF-0.00952226354545682
aF-0.029405519983445885
aF-0.009999530103647281
aF-0.00993092123904214
aF-0.0376843350328623
aF-0.009252285658028504
aF0.002422766186008142
aF0.0
aF-0.03512913277689506
aF-0.005764361974579716
aF-0.1351319389528471
aF0.0
aF-0.04323952092315666
aF-0.024412325407545205
aF-0.009999999999771752
aF-0.14769329128006703
aF-0.00969290900935813
aF-0.00999998962400783
aF-0.029520740996453028
aF-0.01997250719403105
aF0.0
aF-0.019186459797567258
aF-0.013315563881744154
aF0.003011851819501402
aF-0.008093541476562553
aF-0.003326893524391279
aF-0.1557440733444389
aF-0.014127637290742533
aF0.0052555857501704615
aF-0.006363194720953111
aF0.0003563464927596738
aF-0.018275875827453197
aF-0.01999968383190444
aF-0.00895528927220977
aF-0.009741962168058399
aF-0.0227128620015674
aF-0.009999947929663001
aF-0.09631132082948862
aF-0.009999750428156666
aF-0.009960768001982603
aF-0.048904542228811285
aF-0.041604124282154674
aF-0.012218837005122066
aF-0.081871787946687
aF-0.033567306952254676
aF-0.11356917162774728
aF-0.009876130832454732
aF-0.13735425252634825
aF0.9199377208683386
aF-0.009801271731240534
aF-0.007016573615243156
aF-0.026677822394501356
aF-0.01
aF-0.009735663413086716
aF-0.04646880638013465
aF-0.11480009709361477
aF-0.02426215277147605
aF-0.008091045162359504
aF-0.00530567330617978
aF-0.007893037974863085
aF-0.047460644826855365
aF-0.13812627037197675
aF0.003043081621941273
aF0.0
aF3.0596671543737796e-05
aF-0.019563332583763124
aF-0.009847053195263739
aF-0.02233215838689149
aF-0.01999987419973759
aF-0.001832264101500369
aF-0.04841622193818917
aF-0.03626569487822152
aF0.0020079574162404825
aF-0.008654376291028217
aF-0.31763323994667947
aF8.747016188868085e-05
aF-0.01821887616842948
aF0.0
aF-0.12411893577545824
aF-0.17712525978223867
aF-0.01869099223745284
aF-0.01930660196989251
aF-0.07414935372598644
aF-0.0019063554538452238
aF-0.013593677871052822
aF-0.038487503563590764
aF-0.03876049896914923
aF0.0
aF-0.04623545902226017
aF-0.04267893952589941
aF0.0
aF-0.09937138763027499
aF-0.6748950883445384
aF-0.009999973573072063
aF-0.10545296168454286
aF-0.23473718029721127
aF0.029946399672602573
aF-0.01997923206024642
aF-0.18676756082644705
aF0.0
aF-0.009423129238500045
aF-0.008743714137452716
aF-0.02731957915132986
aF-0.009999999999791483
aF0.0011382123997173467
aF-0.00491116944475374
aF-0.005844296674846751
aF-0.016300996429124873
aF-0.03789887698579804
aF-0.0054980678816147115
aF-0.04622057540109908
aF-0.007505203525516172
aF-0.019980665197427756
aF-0.11219878920117371
aF0.0
aF-0.04334834487318065
aF-0.016942667571309262
aF-0.1160581562852001
aF-0.038469116993553515
aF-0.16971081898589802
aF-0.22036760574097447
aF-0.039703252793400326
aF0.04974086492720281
aF-0.045608992072531856
aF-0.027562326236172288
aF0.0
aF-0.019022879920892972
aF-0.014972726057183309
aF-0.00727736494710556
aF0.0
aF-0.004005720723788317
aF-0.16261887638086428
aF-0.019918832872788225
aF-0.004428011921573292
aF-0.019234112305714517
aF-0.04501568824205124
aF-0.061157148265409786
aF0.0
aF-0.04161694481121055
aF0.0
aF-0.00995832353180472
aF-0.017360805494237647
aF-0.02770098437879232
aF-0.009995730702895857
aF-0.02780719644564756
aF-0.01999951753953033
aF-0.019328200230988753
aF-0.01824081070217151
aF-0.034468319889419965
aF-0.13934665618136655
aF-0.009901585902799019
aF-0.0581107907537099
aF-0.00999999999999781
aF-0.02147775572998701
aF-0.11958076130781378
aF-0.002980109913808221
aF-0.16801767749720106
aF-0.009999999220245664
aF-0.13281058583347957
aF-0.0179344414823259
aF-0.01499672212951126
aF-0.011759569838853037
aF0.07798726151185821
aF-0.029518075658338548
aF-0.09360985895515962
aF-0.007172004067393058
aF-0.01803137790423274
aF0.5796530843799561
aF-0.11679154437865115
aF-0.02216165846986438
aF-0.01
aF3.1205921097177125e-08
aF-0.025120450716398318
aF-0.0598342329736826
aF-0.009999999999463731
aF0.2549432155643506
aF-0.009246809545236741
aF6.233513705211635e-12
aF-0.028566807441687866
aF0.0
aF-0.029878023005387118
aF-0.009995730702895857
aF-0.23872882610184135
aF-0.03631886292887046
aF-0.009999999296328757
aF-0.006247372851121419
aF0.0
aF1.1772671726362206e-12
aF-0.17310307243693213
aF-0.00022987748717481077
aF-0.03562703927072579
aF-0.013639605106744977
aF-0.0035748980697582022
aF-0.17302169906819598
aF-0.3519035255982275
aF0.04839941067284427
aF-0.009999999999999551
aF-0.29721403071493435
aF-0.2310577378635829
aF-0.04950978533191864
aF-0.006166270413566215
aF-0.013546659475417132
aF-0.19241516952979376
aF-0.008596909700174984
aF-0.009945031030412674
aF0.0
aF-0.00655372298812556
aF-0.026886975860997173
aF-0.00819726063042632
aF-0.029015694234589086
aF-0.00999999386304526
aF0.0020445177356245114
aF-0.02766205410514
aF-0.00422171126336346
aF-0.008376839102297768
aF-0.018701913656084434
aF-0.017906849265034733
aF0.0008536577455547792
aF-0.009943868343032219
aF-0.00999968280448394
aF-0.009999652982567305
aF-0.028484511033437868
aF-0.01688598309978465
aF-0.06241892663944453
aF0.0
aF-0.027964850538830195
aF-0.01855588512679842
aF0.0004035158528314109
aF-0.04304491903465959
aF-0.02475153717864645
aF-0.009936837548965419
aF0.0
aF-0.03762983184898595
aF6.27389669567973e-06
aF0.0008080361142738812
aF-0.017699855571204324
aF-0.009595785676638933
aF-0.027212538449582806
aF-0.14549740354672283
aF0.0
aF3.3398686005714494e-09
aF-0.00530567330617978
aF0.0032637337149049746
aF-0.03161338416817981
aF-0.00818503947321866
aF-0.03926910325149801
aF-0.09808438910144972
aF-0.05515496243466837
aF-0.01424536203589222
aF-0.018005846846645586
aF0.011540629579091997
aF0.01866313254906733
aF0.01048408041398223
aF-0.05473919517998882
aF0.0
aF-0.008002857835153997
aF0.0
aF-0.009999980633960267
aF-0.02881640779627314
aF-0.009993588070872389
aF-0.009999970233203462
aF-0.015779338153515583
aF0.0
aF-0.00041877372048725915
aF8.881784197001253e-18
aF0.0
aF4.822285681882477e-11
aF-0.017699855571204324
aF-0.008978194310425075
aF-0.00999968280448394
aF-0.016135148861344033
aF-0.19403002393948557
aF0.0
aF-0.057007994857199824
aF-0.01790852398247536
aF-0.0450794290617971
aF-0.03238487965297599
aF-0.016623757123544317
aF-0.009999923369100742
aF-0.0055014873888459045
aF-0.009996688063178076
aF-0.007858356590614096
aF-0.01877675120751572
aF-0.006035776398088923
aF-0.009972533633751193
aF-0.2202743233188845
aF-0.009999999999952387
aF-0.024626317179355033
aF-0.23920592900110485
aF0.0
aF-0.009806363703530567
aF-0.03693788061922334
aF0.0
aF-0.03030967747006776
aF-0.028501145422602125
aF0.02888275718519228
aF3.183575198251187e-07
aF-0.009999999996114941
aF-0.027891076022723758
aF0.06478952294090147
aF-0.009998854507814781
aF-0.0050774369520806455
aF-0.03855509924877161
aF-0.009502496144216506
aF0.004417022352278467
aF0.0
aF-0.07225257487014379
aF-0.005614053695939345
aF0.0
aF0.023151853651954907
aF-0.009957106556393522
aF-0.060876238500816
aF-0.01986612401953186
aF-0.1398579883571091
aF-0.018500219346762076
aF0.0004405742883978126
aF-0.09792911110584318
aF-0.0057444865821908225
aF-0.009988336870210423
aF-0.021204702490442554
aF-0.012158729847832712
aF0.25280191534164764
aF-0.009997586480109701
aF-0.0068478613024811645
aF-0.03970626419303664
aF-0.009871124853559616
aF-0.00499542834317657
aF-0.07821611157639678
aF-0.05955344541918052
aF3.183575197807098e-07
aF-0.14006255819112404
aF-0.00404057519066302
aF-0.02989824913677836
aF0.04975174809768735
aF-0.03695136895091381
aF-0.009951643761228361
aF-0.028047196806349196
aF-0.01276799363947048
aF-0.00443508883167695
aF-0.006427432076114598
aF-0.0004487103297182212
aF0.0
aF4.4408920985006264e-17
aF-0.009999999290816103
aF-0.008779574659629362
aF-0.00560879017026609
aF-0.03525043107323431
aF-0.0064655133815250355
aF-0.042433782694210685
aF-0.018557890314497366
aF-0.01980772781583214
aF-0.0487872786198807
aF-0.011641948440853882
aF-0.035711069382092446
aF-0.00866466910817425
aF-0.009677854060248245
aF-0.009958884204861915
aF-0.009994310799794693
aF-0.028317873377857967
aF0.0
aF0.0029092282666819537
aF-0.0570438981144683
aF-0.009980529729619849
aF-0.00999995740986977
aF-0.023517631786796223
aF0.0015327725163885387
aF-0.018968427970906337
aF0.0
aF-0.0038427097914893594
aF-0.002322387670781828
aF-0.0141475034447863
aF-0.012504926244064287
aF-0.00976149551977678
aF-0.018565811037265213
aF-0.009976140340144218
aF-0.00990304763801317
aF-0.01981011005328144
aF0.0
aF-0.056668886087408436
aF-0.014974266435055908
aF-0.004010253652882107
aF-0.009985790758408409
aF-0.009999999588639756
aF-0.025299917936194592
aF-0.012480779455791614
aF-0.0099956443827759
aF-0.0067523623713837515
aF-0.022317522726019414
aF0.012170915313931788
aF-0.002396150607587978
aF-0.33143940645205366
aF-0.015758286461415135
aF-0.009999605370408022
aF-0.00999999993882847
aF-0.03572176866604737
aF-0.014106959182049812
aF-0.00924958030441845
aF-0.00980380292254331
aF-0.009936837548965419
aF-1.4880977139797544
aF-0.42258757387591606
aF-0.009602322728495523
aF-0.10348474976828806
aF-0.0072320225871611585
aF-0.009997586480109701
aF-0.028703478244622778
aF0.013454118463909422
aF-0.009757773872206721
aF4.648888166131848e-05
aF-0.14006255819112404
aF-0.023517631786796223
aF-0.041807260548254066
aF-0.017667451020799432
aF-0.012489300801961156
aF-0.03732303857014696
aF-0.22429105441362446
aF-0.07703639398858839
aF0.0
aF-0.015112734816451357
aF-0.009839206246304943
aF-0.07330510119104176
aF-0.31106825496056445
aF-0.04256158239581319
aF-0.006814091944593667
aF-0.0431005078088355
aF-0.015053918201155815
aF-0.00886578270364414
aF-0.0901409099015241
aF0.0
aF-0.02999429959124291
aF-0.019877095549655666
aF-0.03626031249855937
aF-0.08463951442687559
aF-0.03763323318923417
aF0.0
aF-0.009552705537204796
aF-0.13172084588894245
aF-0.15588778657693456
aF0.020437287004525094
aF-0.009618510537207633
aF-0.011841757640599573
aF-0.027297813919617477
aF-0.17675862365818637
aF-0.009994310799794693
aF-0.01
aF-0.0060253322867537245
aF-0.011780181827703469
aF-0.009983564829554816
aF0.0
aF-0.009999999588639756
aF-0.047767858123935816
aF-0.009996166178146096
aF-0.002722705734789389
aF-0.0037948035110196387
aF-0.08668839207721664
aF-0.08926758507489822
aF-0.009972533633751193
aF-0.03999519099953629
aF-0.0297521028911268
aF-0.1684969593189863
aF-0.01
aF-0.009999994329664022
aF-0.02770098437879232
aF0.0
aF0.008844692141455942
aF-0.049990562267118906
aF-0.01991161834802126
aF-0.07977729981894288
aF-0.18133436873533534
aF-0.08101490214587179
aF-0.06475843521376314
aF-0.02853855107775284
aF-0.019950880508223596
aF-0.10101255831998562
aF-0.04720304913401921
aF-0.04330267114341625
aF-0.006348301997539652
aF-0.005933472382903718
aF-0.007245621749392338
aF-0.009785150946080106
aF-0.009971600752254258
aF-0.0090426469895103
aF0.0
aF-0.01901923533342546
aF-0.019823570175718022
aF-0.009999999999999995
aF-0.12052881632147235
aF-0.009999999999791483
aF-0.019924659212277904
aF0.0010005991672911965
aF-0.007179738576749111
aF-0.01999999871064107
aF-0.005823194087001956
aF-0.06361950944419777
aF-0.009743617436782426
aF-0.009624107147613756
aF-0.02636813380720672
aF-0.019896704975196883
aF-0.02598166171307666
aF-0.021235721680462276
aF-0.050945717604234934
aF-0.009999856182263876
aF-0.005618961688384446
aF0.0020741757177699448
aF0.0
aF-0.12052881632147235
aF0.0017912898347849228
aF-0.005502839645431464
aF-0.03540082052667705
aF-0.04757504137184513
aF-0.02853855107775284
aF-0.007157418481828268
aF0.0
aF-0.00924958030441845
aF-0.1459842060026909
aF-0.009644882517889903
aF-0.023753114286559962
aF0.0
aF0.0
aF0.004454318462744009
aF-0.006376859087171549
aF-0.0022376431648253522
aF-0.01832270975051877
aF-0.048273938273699996
aF-0.006712506026868891
aF-0.018724129553397084
aF-0.005554369520771327
aF-0.019485613824847377
aF-0.00615670271599596
aF-0.0156228831099602
aF-0.21920596448839086
aF-0.23473718029721127
aF-0.036126339648211575
aF-0.0035822406587977446
aF0.0
aF-0.035595040605099534
aF-0.3340131652218041
aF0.0
aF-0.007515470750687551
aF-0.05234256001632108
aF-0.01999987419973759
aF-0.019978614753200424
aF-0.03069580096971161
aF-0.009416157576450571
aF-0.009359909183587532
aF-0.036839398800714095
aF-0.018203670120943746
aF-0.006927074458468466
aF-0.0022110169113559565
aF-0.015127817148741183
aF-0.00447534893168653
aF-0.039251561105694825
aF-0.05839428931150683
aF-0.12177231651292889
aF-0.005933472382903718
aF0.0031496802442205073
aF-0.009999999999791483
aF-0.02458782063200525
aF2.8952162307871456e-06
aF-0.007179738576749111
aF-0.009999999993505752
aF-0.00727736494710556
aF-0.02686756280049369
aF-0.006385640658965718
aF-0.012244870284133683
aF-0.016459158574971735
aF-0.02874363748569044
aF-0.10166376187160205
aF-0.004229677103241966
aF0.0
aF-0.03699542559859017
aF-0.01999999633782394
aF-0.10340499823149472
aF-0.11491026493550571
aF-0.10340499823149472
aF-0.008803615616981056
aF0.0029266116270115507
aF0.0
aF-0.019998764309579066
aF0.0
aF-0.0798149748020124
aF-0.009999923369100742
aF-0.009985395722522614
aF-0.009981715832696808
aF-0.019997716776696216
aF-0.03323319859140428
aF-0.048273938273699996
aF-0.12088305653662758
aF-0.009994328700250264
aF-0.1160581562852001
aF-0.020579919071334003
aF-0.009294452595088149
aF-0.22429105441362446
aF-0.009999999747684306
aF-0.029999029625687512
aF7.654818727065638e-05
aF-0.00999410933924434
aF-0.009038564117037684
aF-0.014606252425488015
aF-0.07352735749538515
aF-0.009035940176986692
aF-0.02216165846986438
aF-0.009999787369029687
aF4.4408920985006264e-17
aF-0.004464144921191136
aF-0.03354539092926084
aF-0.03224344903314365
aF-0.012943679552397645
aF0.0031252745169613127
aF-0.009997083193199339
aF-0.01
aF-0.08467827523842843
aF-0.1058069360566697
aF-0.009934394700835118
aF-0.016998138379530316
aF-0.01571347777175509
aF-0.009998718482528793
aF-0.01953487112874969
aF-0.012208225778664934
aF-0.0035748980697584754
aF-0.019086650576992374
aF-0.04575883285314341
aF-0.019999999019590094
aF0.0
aF-0.009999826307109674
aF-0.008564797361086156
aF-0.021235721680462276
aF0.0
aF-0.01499999999640929
aF0.0
aF-0.009999999999791483
aF-0.009785583773967895
aF-0.07415224894221722
aF-0.018507016891681043
aF-0.019747374180063098
aF-0.07756702958004581
aF-0.009962720362682155
aF-0.029520740996453028
aF-0.02297965977041986
aF0.0
aF-0.1471238876882322
aF-0.04166525467972004
aF-0.009999994329664022
aF-0.009999856182263876
aF0.004417022352278467
aF6.27389669567973e-06
aF0.0
aF-0.6053430767762603
aF-0.006454148341633254
aF-0.009999763307082372
aF-0.023563124588781036
aF0.0029266116270115507
aF-0.11026668957139826
aF-0.016636343145144963
aF-0.009901585902799019
aF-0.00969290900935813
aF-0.0779776832534019
aF-0.02664217539420695
aF-0.03605490752241639
aF-0.018507016891681043
aF3.0199483214143896e-09
aF0.0020211479451575365
aF-0.14212932421312366
aF-0.021071990937201565
aF-0.006876070700605782
aF-0.01823917705540535
aF-0.00655372298812556
aF-0.0270816036572445
aF-0.03864485989222193
aF-0.02472190583260051
aF-0.023031970903884286
aF-0.03876049896914923
aF-0.012146150146212498
aF-0.028429789639176025
aF-0.029697826435545353
aF-0.04882762110256416
aF-0.009086521159454653
aF-0.009462310338667287
aF-0.6463968241934983
aF0.0
aF0.0
aF-0.009199887994799665
aF-0.009957516320273344
aF-0.09361356123626967
aF-0.02288399084782922
aF-0.029738291307201015
aF0.001960329447426049
aF-0.06351182700934815
aF-0.026327458220344758
aF-0.007138528079651869
aF-0.019999898599446148
aF-0.00976149551977678
aF-0.05200237812999377
aF-0.0714752442832007
aF-0.03640695163161575
aF0.0
aF-0.026268659582664375
aF-0.009985224440210376
aF-0.06525511388954415
aF1.3344956251160057e-11
aF0.0
aF-0.015514513708232706
aF-0.009992549551075702
aF-0.06743311410820477
aF-0.1700666817541354
aF-0.043130659557265104
aF0.0014122447466227784
aF-0.021624436983269525
aF0.0044238536897292765
aF-0.009974270884358285
aF0.00048135152783452927
aF-0.02511427670483708
aF-0.009999887096032613
aF-0.00999999996373185
aF-0.009956104290282233
aF-0.009954106368123376
aF-0.004594428339520474
aF-0.009489117682180297
aF-0.0067523623713837515
aF0.0007776475996004184
aF-0.009970588992729828
aF-0.06085709176083329
aF-0.0262887430739562
aF-0.008022398450072545
aF0.0
aF-0.019996487000929937
aF-0.006887397508379228
aF-0.009995977409506163
aF-0.02472190583260051
aF-0.00988683959739337
aF0.0006217401455506289
aF0.0010673225873159243
aF-0.06868525316608917
aF-0.10886075028623954
aF0.1266537303817865
aF-0.05682106971987558
aF-0.0316063517180553
aF-0.05476219186546617
aF-0.009989076202625803
aF-0.035286368584445844
aF0.0
aF-0.006983756701894536
aF0.0
aF-0.08603250313906896
aF-0.07501047294475445
aF-0.013379623884084736
aF-0.004801941032539292
aF-0.009882762450756378
aF-0.009823570175718029
aF-0.00447534893168653
aF-0.009999999989847684
aF-0.00615670271599596
aF-0.009970588992729828
aF-0.007177209860302672
aF-0.034432191042665206
aF-0.17675862365818637
aF-0.009908412516850347
aF-0.009971085055377546
aF0.13258597593330648
aF-0.009881960255221148
aF6.11816055265102e-05
aF-0.00886578270364414
aF-0.006193980784002427
aF-0.009403337687142303
aF-0.028959270329025257
aF-0.016659261274068363
aF-0.009994328700250264
aF0.0
aF-0.35275672884618325
aF-0.006599272683498863
aF-0.0022110169113559565
aF-0.05607840733232647
aF-0.009881960255221148
aF-0.01
aF-0.07426371195062337
aF-0.012438232578967773
aF-0.00999999996373185
aF-0.004894102588974457
aF-0.02727577765935673
aF-0.10460771407055085
aF3.0199483214143896e-09
aF-0.017038218348737002
aF0.06543851443337928
aF0.0
aF-0.009999208625749304
aF-0.026787426967665756
aF-0.009992254431735615
aF-0.00924958030441845
aF-0.029335049173371798
aF-0.009999999999952387
aF-0.0038479970453560086
aF-0.027871034074130514
aF-0.009972787004354089
aF-0.18353506313815432
aF-0.009999996564466958
aF-0.01991256299330201
aF3.2890966141341236e-07
aF-0.039871073235074356
aF-0.0691054062761642
aF-0.19192376329737112
aF-0.2269207791741547
aF0.0
aF-0.00530567330617978
aF-0.00530567330617978
aF-0.07192561521507104
aF-0.008102720470652627
aF-0.009882762450756378
aF-0.0035748980697584754
aF-0.08934723219589143
aF-0.01
aF-0.012489300801961156
aF-0.006454148341633254
aF-0.009980529729619849
aF-0.008307363396661346
aF-0.00964377410718725
aF-0.052236468137920836
aF-0.008322709859001982
aF-0.019317923868974664
aF-0.011061985925713067
aF-0.009999999996114941
aF-0.01529771014043128
aF-0.007157418481828268
aF-0.009974686813176857
aF-0.009953071929086734
aF-0.04488709697354833
aF-0.18951960943262397
aF-0.042729976840340494
aF-0.014663008815761111
aF-0.04478334729414003
aF-0.004928828787108836
aF-0.006460630323732017
aF-0.10991096709745025
aF-0.006193980784002427
aF0.0038920019786912495
aF-0.028152997286949588
aF0.0
aF-0.016828248023839674
aF-0.00764678660103778
aF0.0
aF3.6107407840191284e-05
aF-0.22429105441362446
aF0.0
aF3.6053382501677335e-14
aF-0.07038443264005473
aF-0.019588532131505704
aF-0.014713472939436607
aF-0.0071516875798209156
aF-0.009683433139861995
aF-0.026194818642718852
aF-0.004836145676014394
aF-0.01686831066694816
aF-0.009599213870196027
aF-0.009857737798224905
aF0.0
aF-0.007744504671232146
aF-0.009254344518954787
aF-0.0072511540242025906
aF-0.11585763726445236
aF-0.027646267083332926
aF-0.009999999993195183
aF-0.03738403990276775
aF-0.08371750383195284
aF-0.05290402584037719
aF-0.05053423018454794
aF-0.03859248795638788
aF-0.015080374131647763
aF0.0
aF0.0006022707344114309
aF-0.005238610241036888
aF-0.0064655133815250355
aF-0.014237359316624603
aF-0.09093532144702367
aF0.12538782199161436
aF-0.009593973966442956
aF-0.034825998002593346
aF-0.020070724035248157
aF-0.017667261857472596
aF-0.0385595918858984
aF-0.01
aF-0.028827915409276712
aF-0.01999999871064107
aF-0.009999999993195183
aF-0.006664932573818099
aF-0.018626433994876023
aF-0.002782393037170979
aF-0.006144162592816768
aF-0.035884709351089825
aF-0.011344029152167107
aF-0.007935727567996332
aF-0.006802627829545475
aF-0.009861597697889121
aF-0.015722192925466748
aF-0.10348474976828806
aF-0.009462310338667287
aF-0.06305061886015563
aF-0.18353834637392769
aF-0.009999999998299609
aF0.0037705400108483987
aF-0.01
aF-0.009844559777849012
aF-0.009991834336260844
aF-0.09280522623105254
aF-0.00764678660103778
aF-0.006848361973309994
aF-0.0023698656107181935
aF-0.007869215176792857
aF-0.00530567330617978
aF-0.06190299806523842
aF-0.08016809639150524
aF-0.016810872335326715
aF-0.01556875428795867
aF0.0020420024760334976
aF-0.009971600752254258
aF-0.009951643761228361
aF-0.009618510537207633
aF-0.4367244554282093
aF0.0
aF-0.0037509231494084853
aF-0.1811533342176944
aF-0.009999999998299609
aF-0.01571347777175509
aF-0.009882762450756378
aF-0.026327458220344758
aF3.2890966141341236e-07
aF-0.008289461694848512
aF0.0
aF-0.023563124588781036
aF-0.024794776303516404
aF-0.009964818612558986
aF-0.008504851868274443
aF4.4408920985006264e-17
aF-0.05007920439549084
aF-0.009999999999870406
aF-0.009644882517889903
aF-0.009964818612558986
aF0.027550736752037012
aF-0.016137932710453634
aF-0.05235675925489827
aF-0.049795501674145926
aF-0.027697997821126346
aF-0.1384918244120549
aF0.0
aF-0.03491642793643828
aF-0.009462310338667287
aF1.2552626430135938e-07
aF-0.015601263454001535
aF0.0
aF-0.009828086399375822
aF-0.009999999747684306
aF-0.05205215028992246
aF-0.006884988200733266
aF-0.048129375698458134
aF-0.025931055937326062
aF-0.01
aF-0.13606672458845684
aF-0.03623891680930453
aF-0.009784664481884102
aF-0.039553131226178866
aF-0.009972141125076989
aF-0.02514721059067512
aF-0.026412568098022168
aF-0.037666518742266064
aF-0.028592080750436785
aF0.0028340717617681864
aF-0.01922504981603662
aF1.61055178151448e-05
aF-0.014858721343218063
aF-0.014647515329742272
aF-0.027342030927943718
aF0.0
aF-0.09636840359430783
aF-0.009995644382775944
aF-0.014544147005536448
aF-0.008093541476562553
aF-0.018972609048639608
aF3.7533944170586866e-06
aF-0.021731972852692023
aF-0.07815710229230749
aF-0.005166961379601566
aF-0.08068209240901857
aF-0.0016773134216513698
aF-0.025184910729943732
aF-0.11915243058089854
aF-0.009999329390317458
aF-0.007255769528716812
aF-0.009508587463367737
aF-0.016815292389482595
aF-0.028298858450978327
aF-0.05589013943449769
aF-0.018939433038597006
aF-0.019999158031350786
aF-0.01823917705540535
aF-0.016998138379530316
aF-0.005941590418807537
aF-0.018794716292834125
aF3.1086244689504386e-17
aF-0.009999999998477758
aF-0.01802533002856472
aF-0.08950523801676948
aF-0.009997083193199339
aF-0.025303999347650347
aF-0.008820542860148247
aF-0.03182722800965733
aF-0.03000006249492404
aF-0.0098370648772623
aF-0.006975605956780736
aF8.881784197001253e-18
aF0.00038838670435081715
aF-0.009462310338667287
aF-0.019992117836661445
aF-0.06182196082170757
aF0.0
aF-0.018139497264316545
aF0.0
aF-0.015115776160443194
aF-0.009298340184363617
aF-0.3801814104120387
aF-0.013030290702099259
aF-0.04584666725529883
aF-0.005890998175472655
aF0.40106595248017746
aF-0.007274860054253195
aF-0.009999952391610585
aF-0.019823570175718022
aF-0.010422597410642075
aF-0.005823194087001956
aF-0.028516191914320956
aF-0.009871500443044036
aF-0.033129446291812366
aF0.00046274867719421907
aF-0.007905654997281842
aF-0.0314622224693807
aF-0.007905654997281842
aF-0.009314789101077438
aF-0.013080519143052676
aF0.023635359238108174
aF-0.05747665499513673
aF-0.009999605370408022
aF-0.04841051221955988
aF0.0
aF-0.056428366787717066
aF-0.018591713688577514
aF-0.036518259210280124
aF0.0
aF-0.001458408276088311
aF-0.04757504137184513
aF-0.00968775385434145
aF-0.009265494677900828
aF-0.005238610241036888
aF-0.005388249096323753
aF-0.019999990635337073
aF-0.009508587463367737
aF-0.007927788794758368
aF-0.00998050256586367
aF-0.007368122880235781
aF-0.09752772590913622
aF-0.04269716530390159
aF-0.00955158867632113
aF-0.039993095517046565
aF-0.029697826435545353
aF-0.014450998892090918
aF-0.006876070700605782
aF-0.02935471883694394
aF-0.015127817148741183
aF-0.01720125537788523
aF-0.001898582389723177
aF-0.020603943261673183
aF-0.019873581689672536
aF-0.02882572922447031
aF-0.009989768046993313
aF-0.017231093466723125
aF0.0
aF-0.017953840517204004
aF-0.019971600723139582
aF-0.009983422286049523
aF-0.006348301997539652
aF-0.06660688652121781
aF7.377334299007999e-11
aF-0.011695945338509013
aF-0.014598995541848753
aF-0.01966878806784407
aF0.010830668920331835
aF-0.019895704496027324
aF-0.009999953353896886
aF-0.060084335520079274
aF-0.009785583773967895
aF-0.008308531441052147
aF-0.1416044292116774
aF0.0004035158528314109
aF-0.04646792532670058
aF0.0
aF-0.00666109650810971
aF-0.00999999993882847
aF-0.009359909183587532
aF-0.01593937592383543
aF0.0
aF-0.009936837548965419
aF-0.015225412839622723
aF-0.009971085055377546
aF-0.0166835786509662
aF-0.01
aF-0.009827744425210033
aF-0.009999512428213134
aF0.00046129683233839036
aF-0.034870561856640864
aF-0.0071516875798209156
aF0.0028404742243504236
aF-0.0011613956410507177
aF-0.0017332723168184722
aF-0.00807720763582769
aF-0.011785606035648263
aF-0.010909047269805877
aF0.0
aF-0.019489255527950347
aF-0.008056074432276055
aF0.0
aF-0.06037506395007443
aF-0.00999998721241952
aF-0.015548936043673373
aF-0.1459842060026909
aF-0.0021493120808798215
aF-0.31955109770049767
aF-0.01999994726494719
aF0.0
aF-0.05839428931150683
aF-0.21687028212946152
aF-0.17255397725609703
aF-0.009823570175718029
aF-0.003509528830931089
aF-0.03336761320000545
aF-0.0072511540242025906
aF0.0004035158528314109
aF-0.01877675120751572
aF-0.009970588992729828
aF-0.042540350940271796
aF0.0
aF-0.0033976873504343464
aF-0.07999650086113046
aF-0.024227792160732356
aF-0.009958884204861915
aF-0.05417029251688852
aF-0.009707256691388166
aF-0.009996640654897252
aF-0.017364939604542502
aF0.003693502513185164
aF-0.029545411338216067
aF2.6589224428900105e-05
aF-0.05302070449411481
aF-0.008073906183061304
aF-0.3023131606323092
aF-0.009679049462863935
aF-0.028718167748882723
aF-0.0090426469895103
aF-0.004843760546190661
aF-0.011683282432284331
aF-0.01590593105136578
aF-0.02519825682128623
aF-0.01498002780852092
aF-0.037450886653531204
aF-0.007946237828984211
aF-0.009172307316193416
aF-0.009985627124853331
aF-0.008253917486613437
aF-0.01621439806085205
aF-0.01850485186827444
aF-0.00530567330617978
aF-0.048936960139976074
aF-0.03731898721089444
aF-0.019136405864542454
aF-0.0199987715819524
aF0.00326223682561163
aF-0.009994328700250264
aF-0.012406745455493877
aF-0.005096739897086513
aF-0.04592208161115441
aF-0.017997187455572956
aF-0.027756298824555475
aF-0.13523705294950492
aF-0.03808989592876138
aF-0.009972787004354089
aF-0.029943676321715757
aF-0.007481810472256455
aF0.0016856434722088325
aF-0.009519111839369557
aF0.0010673225873159243
aF0.0
aF-0.06998271906962893
aF-0.05547198194625848
aF-0.009851941917103963
aF-0.006193980784002427
aF0.0
aF-0.01571347777175509
aF-0.007758174603105277
aF-0.02819519701475413
aF-0.007904895774149384
aF-0.009970588992729828
aF-0.019993981665277744
aF-0.004999999981865925
aF-0.009999923348540943
aF9.226257627488188e-06
aF0.000866933484151785
aF0.0022591044211912326
aF-0.03932193654422867
aF2.2179939168642805e-08
aF-0.028429789639176025
aF-0.05730832852887102
aF0.0
aF-0.0635544012501348
aF-0.14621707046057092
aF-0.004229677103241966
aF-0.0040023720205189265
aF-0.005008299354342526
aF0.0
aF-0.009999999999999959
aF-0.004643526649365448
aF-0.00968775385434145
aF-0.01
aF0.0
aF-0.005229843312089853
aF-0.008056074432276055
aF2.731148640577885e-16
aF-0.009972787004354089
aF-0.007914246593858653
aF-0.007264434408978619
aF-0.009320108884800617
aF-0.08947161186898875
aF-0.12056319039774688
aF-0.02636813380720672
aF-0.009972533633751193
aF-0.049500198115980464
aF-0.012553525580094434
aF-0.008253917486613437
aF-0.03970626419303664
aF-0.01683901867571157
aF-0.019998869447781044
aF-0.009246809545236741
aF-0.056668886087408436
aF-0.07352735749538515
aF-0.007905654997281842
aF0.0017912898347849228
aF-0.04269716530390159
aF-0.02949916622050098
aF0.005589792767545453
aF-0.008322709859001982
aF0.0
aF4.4408920985006264e-17
aF-0.009785583773967895
aF-0.009136472882669082
aF0.006680959750068615
aF-0.01
aF-0.09797068197665229
aF-0.01413260851027676
aF-0.008641840497590701
aF-0.00530567330617978
aF0.44753129695567495
aF-0.006848361973309994
aF5.751443007329105e-07
aF-0.006144162592816768
aF0.02474840214049243
aF-0.009999999335284188
aF-0.03672505992882674
aF0.01769412044920849
aF5.751443007329105e-07
aF-0.12917702721788007
aF-0.006385640658965718
aF0.0
aF-0.00655372298812556
aF-0.052919174035695966
aF-0.009760357376134128
aF-0.023085973391278464
aF0.0
aF-0.08493838705619916
aF-0.024333766308635162
aF-0.006451781004778825
aF-0.025965828262159197
aF-0.009999999981949819
aF-0.016828248023839674
aF-0.041858233666259306
aF2.7877819074617616e-06
aF-0.04286459905694813
aF0.0
aF-0.047143155707695464
aF-0.04565668399961162
aF-0.006208621071162165
aF-0.039093074900446355
aF-0.01628890538309242
aF0.014975079423772355
aF-0.009999971254306485
aF-0.00980380292254331
aF-0.019998624802431062
aF0.0
aF0.0
aF-0.0504713257199884
aF0.0
aF-0.016459158574971735
aF-0.007893037974863085
aF-0.013735633948930221
aF0.0
aF0.0
aF-0.01899937206935056
aF-0.01836373264193751
aF-0.009489117682180297
aF0.0
aF0.0
aF-0.06716707628840837
aF-0.009998544314087898
aF-0.009937737486808335
aF-0.008968348027764993
aF0.0
aF-0.00548371141984354
aF-0.06665996341123578
aF0.0009552005644914741
aF0.1753308674650343
aF0.0
aF-0.008322709859001982
aF-0.06147438131583351
aF-0.048646784176645655
aF-0.009735663413086716
aF5.310608984095966e-06
aF-0.019998253067514547
aF-0.00928580380618817
aF-0.00995832353180472
aF-0.029784456507858596
aF0.0
aF-0.022635343950675603
aF-0.07927296540751556
aF-0.009999681851459281
aF0.10727506019966346
aF-0.03867928632136331
aF-0.018594797837771265
aF0.0
aF-0.009955016979108017
aF-0.007939415146395382
aF-0.1069119433998627
aF-0.11491612614775362
aF-0.00999997820830735
aF-0.018591713688577514
aF-0.029501819457205584
aF-0.009999999999791483
aF0.0006101933569312628
aF-0.3278516282699822
aF-0.18935350219049057
aF-0.06910941532439915
aF-0.0975560226517803
aF-0.004980172725911496
aF-0.009999999970885323
aF-0.00899484422589853
aF3.0596671543737796e-05
aF-0.10401902941146653
aF-0.045826878420303814
aF-0.001458408276088311
aF0.032815315766160744
aF-0.009999904518692499
aF-0.0090426469895103
aF-0.029251610406092886
aF-0.07563445351307876
aF-0.006712506026868891
aF-0.01994912424586131
aF-0.019828313392711877
aF-0.018054511494604318
aF0.0004595742798437774
aF-0.008308531441052147
aF-0.009136472882669082
aF0.00038838670435081715
aF0.0
aF-0.048907875896066114
aF0.0
aF-0.02937606179684183
aF-0.1989545932184651
aF-0.3525685829093882
aF-0.009999999999248912
aF-0.009739022682510317
aF-0.007580275429145893
aF-0.043137028941678646
aF-0.006954350764027716
aF-0.015115794722597935
aF-0.008469148187894722
aF-0.009946130117943017
aF-0.11491026493550571
aF-0.009157829375184489
aF-0.009985909525926682
aF-0.02723060149438025
aF-0.009999990730948698
aF0.0
aF-0.01999993546823658
aF-0.02777012912586973
aF-0.009743617436782426
aF-0.007743925658809424
aF-0.002832524656512546
aF-0.007064898810522841
aF-0.006825958210894988
aF-0.009980498523698752
aF-0.009970588992729828
aF-0.009497982241760159
aF-0.04913626834108692
aF-0.009838450266007479
aF-0.009918334215359849
aF-0.009248568998158627
aF-0.009038564117037684
aF-0.023232716508584807
aF-0.03246620212206666
aF-0.05744866186803993
aF-0.009999999930519482
aF-0.03517857026618248
aF-0.009283703506628382
aF-0.009999110653312313
aF-0.009136472882669082
aF-0.009994328700250264
aF-0.015125060562024242
aF-0.0021850030525785813
aF-0.007168227361282745
aF-0.003430502389173631
aF-0.01415318265911081
aF-0.02504146325500617
aF-0.009251636503469367
aF4.91913688516199e-08
aF-0.009999999975211607
aF-0.009999787369029687
aF8.881784197001253e-18
aF-0.01999048561098101
aF-0.007194568161218154
aF-0.2004139481776868
aF-0.013542916235536868
aF-0.06219989895994798
aF-0.01960625035538584
aF-0.03994978678910449
aF0.0
aF-0.22905694684420527
aF-0.00447534893168653
aF-0.007333164873002696
aF-0.013638778759813593
aF-0.025516633564473153
aF0.0
aF-0.00999975964665591
aF5.162119884560834e-07
aF-0.2011983392116548
aF-0.023479716412077065
aF4.011200361642153e-08
aF-0.009999999650934361
aF-0.008846213012307947
aF-0.02664217539420695
aF-0.03069580096971161
aF-0.009886942708461834
aF-0.027741630819039707
aF-0.0037948035110196387
aF-0.007391366174397448
aF-0.009784664481884102
aF0.0
aF-0.061660911105002936
aF-0.11134088542998291
aF0.0
aF-0.041807260548254066
aF-0.01030567330617978
aF-0.2004139481776868
aF-0.009994328700250264
aF-0.01319845433081438
aF-0.023031970903884286
aF0.0
aF0.0
aF0.01254302068525853
aF-0.03316680499816583
aF8.74370051690332e-05
aF0.0022591044211912326
aF-0.00999594738990007
aF-0.022317522726019414
aF-0.009999999989847684
aF-0.009999857743929372
aF-0.007248081031625691
aF-0.038272213736845716
aF-0.07184452651329669
aF-0.009994328700250264
aF-0.06291901106769492
aF-0.03434652336892442
aF-0.00999953460986527
aF-0.014754649587772974
aF-0.04034531950459631
aF-0.08934723219589143
aF-0.009999661141382343
aF-0.04915964483502873
aF-0.02874363748569044
aF-0.008564797361086156
aF-0.11026668957139826
aF8.881784197001253e-18
aF-0.021842214007962386
aF-0.0038427097914893594
aF-0.006180244489713542
aF-0.018500043071276333
aF-0.005742861473314557
aF-0.0594918097819775
aF8.428990838638129e-12
aF0.0
aF-0.006876070700605782
aF-0.019995524151578233
aF-0.04167643365661609
aF-0.015547232316994553
aF-0.008322709859001982
aF0.0
aF-0.055211409486980105
aF-0.08357683183152612
aF-0.009999999999999995
aF-0.009823570175718029
aF-0.02178999313584234
aF-0.06242308688125629
aF-0.025358113369503804
aF-0.03456567973679371
aF-0.01670343851593911
aF0.0
aF2.731148640577885e-16
aF-0.00862544525148002
aF-0.007064898810522841
aF-0.01605960454873486
aF-0.04256158239581319
aF-0.0337087140934675
aF-0.019899274642576237
aF-0.011467633389234016
aF-0.01788736667511335
aF-0.03597040336770261
aF-0.13285012997683301
aF-0.01874028003886573
aF0.041324590170452466
aF-0.009728654755023438
aF0.0
aF4.537863058335506e-06
aF-0.05373944666796678
aF-0.04841051221955988
aF-0.2385652876071286
aF-0.00999975964665591
aF-0.12177231651292889
aF-0.04646792532670058
aF-0.3241262225133422
aF-0.08975485458814744
aF-0.009999973573072063
aF-0.01999738596257488
aF-0.16912685575191017
aF-0.00993725941919453
aF-0.20481379136665512
aF-0.10101255831998562
aF-0.019000921122587937
aF-0.009999999981949819
aF-0.03999519099953629
aF3.6053382501677335e-14
aF-0.07407711451252377
aF-0.03965067196602863
aF-0.053159052677887876
aF-0.0570438981144683
aF0.0
aF-0.03931478168411505
aF-0.009999810160401067
aF-0.009999997853809586
aF4.4408920985006264e-17
aF-0.016756800486809317
aF0.0
aF-0.009785583773967895
aF-0.018024702439722012
aF-0.08389995569113445
aF-0.028644134907945228
aF-0.019817821564940143
aF0.0
aF-0.026875983210026044
aF0.07891326680765191
aF-0.029118193829971998
aF-0.042425750803694935
aF-0.09468024017067461
aF-0.01999999901959005
aF-0.021431544500713995
aF-0.00615670271599596
aF-0.02303860531364406
aF-0.00980380292254331
aF-0.009999999993505752
aF-0.009999810160401067
aF-0.009912550941969548
aF-0.09340906914987308
aF-0.033599305041113525
aF-0.028775886168902084
aF-0.005115794722706435
aF-0.006746463841500624
aF-0.00862544525148002
aF-0.03684886404534666
aF-0.028111074414258797
aF-0.001898582389723177
aF0.021438223196691815
aF-0.007019829557256417
aF0.0032637337149049746
aF0.02158881153499234
aF0.0066956281649051975
aF-0.04023682467413392
aF-0.00996469167118039
aF-0.012208225778664934
aF-0.015826520387556477
aF-0.04841622193818917
aF-0.02063284475634486
aF0.0
aF-0.009999605370408022
aF0.0
aF-0.024613047248089912
aF-0.05514477537646039
aF-0.0099999999998915
aF0.007095929018268304
aF-0.1058069360566697
aF-0.007515470750687551
aF-0.18656290947713486
aF-0.006457786443825607
aF-0.0051891905557936826
aF0.0
aF-0.10429666426092601
aF-0.12097205033362202
aF-0.009403337687142303
aF-0.00999999927000125
aF-0.017776953043639687
aF-0.04224921950844708
aF-0.04001538127876145
aF-0.007526959082443833
aF-0.009367338958678067
aF-0.0035372298223294574
aF-0.029883164018607494
aF-0.029921711032566637
aF-0.01
aF0.06543851443337928
aF-0.009999887096032613
aF-0.05787504677688219
aF0.0007062559318282024
aF-0.015478993701641665
aF-0.049938485354625195
aF-0.04448512445517506
aF-0.0099986732090148
aF-0.009993411190111502
aF-0.005229843312089853
aF0.004209819986629982
aF-0.009994328700250264
aF-0.01705535740877704
aF-0.006920128961071657
aF-0.0455678243014669
aF-0.0455678243014669
aF-0.02961496774337838
aF-0.0066837679126902005
aF8.74370051690332e-05
aF-0.007367204124826686
aF-0.007743925658809424
aF0.0
aF-0.006954350764027716
aF-0.005229843312089853
aF-0.019338892341180275
aF-0.008308531441052138
aF-0.0074999999927212865
aF-0.0035748980697584754
aF-0.012723975111006761
aF-0.009999997236726135
aF-0.002269917729366082
aF-0.02166728288832819
aF-0.0067523623713837515
aF-0.0054364998659093755
aF-0.00953357702552945
aF-0.11990526937273986
aF-0.00778935019299703
aF-0.009996362145805867
aF0.0
aF-0.06641973165293544
aF-0.009999999999248912
aF-0.008376440921873953
aF-0.0018097498931570746
aF-0.009468491972709941
aF-0.05431099228625169
aF-0.003592344089594165
aF-0.005965843024442922
aF-0.03572176866604737
aF-0.0064434482070809245
aF3.515964826853568e-05
aF0.06540865297977438
aF-0.01899730428452689
aF-0.027246365933570146
aF0.0
aF0.0
aF0.0
aF0.0
aF-0.005825970759809172
aF-0.00999999986735857
aF-0.05843538447521678
aF-0.009994328700250264
aF-0.005286319357323489
aF-0.009508587463367737
aF-0.009999999993195183
aF-0.007428603354630747
aF0.0
aF-0.025536022583351775
aF-0.004801941032539292
aF-0.03864485989222193
aF-0.00862544525148002
aF-0.06457172925852632
aF-0.026715414513336002
aF-0.008978194310425075
aF-0.004841266383625188
aF-0.17857551623027443
aF0.0
aF-0.07049224653003029
aF-0.009999972899804862
aF0.0
aF-0.005616488730120023
aF-0.08974769437126753
aF-0.036839398800714095
aF-0.01999589309922819
aF-0.004843760546190661
aF-0.005008299354342526
aF-0.03441850816088304
aF0.0
aF-0.006954350764027716
aF0.0
aF-0.015986290506116534
aF-0.11336525292320132
aF0.0028640895314894156
aF0.0
aF-0.0059513300188651684
aF-0.00862544525148002
aF0.0
aF-0.09665899314071306
aF-0.009912558676046365
aF-0.01999999871064107
aF-0.001898582389723177
aF0.0
aF-0.009995325545315655
aF-0.009936837548965419
aF-0.014609367220870497
aF0.0007062559318282024
aF-0.009416157576450571
aF-0.04535326739480221
aF-0.015284137397832884
aF-0.020393457416713272
aF-0.03954429552128464
aF-0.02614794853435827
aF0.0031496802442205073
aF-0.009999999999302242
aF-0.009984954406623434
aF-0.009962720362682155
aF-0.020983111512659563
aF-0.00635890721914723
aF-0.005506208046156528
aF-0.00988880197806304
aF-0.003812766752903744
aF-0.018442508086323486
aF0.0
aF-0.029262975126644337
aF-0.006954350764027716
aF-0.009212120447392894
aF-0.00968775385434145
aF-0.009086521159454653
aF-0.009999994329664022
aF-0.008079192807013979
aF-0.0452136096210443
aF-0.005983921969390476
aF-0.028701513343248004
aF0.0
aF-0.01999410933924434
aF0.0020211479451575365
aF-0.01656591593846338
aF0.0
aF-0.009748130229306476
aF-0.029883597623539197
aF0.0
aF-0.0067523623713837515
aF-0.009999999970885323
aF-0.00849907703656776
aF-0.13268206788373121
aF-0.008553469093757055
aF0.004454318462744009
aF3.6053382501677335e-14
aF-0.006927074458468466
aF-0.003109781152316008
aF-0.005798994460729576
aF-0.0054989477771417794
aF-0.006740058973706161
aF-0.009975807870667468
aF0.0
aF0.0
aF-0.10080627684553038
aF-0.009999999999006874
aF-0.03456407877350093
aF-0.025987398203034844
aF-0.14234280742201832
aF-0.005502839645431464
aF-0.009936837548965419
aF-0.029999998703836253
aF-0.01999676024317976
aF0.02472592952862558
aF-0.019993324032501477
aF0.0
aF-0.015333817556638058
aF-0.0067523623713837515
aF-0.00862544525148002
aF-0.04637715706591974
aF-0.018817697965893714
aF-0.10326714177413017
aF-0.015822277939673415
aF0.0
aF-0.01991618449043376
aF-0.006740058973706161
aF-0.006954350764027716
aF-0.012004039529526073
aF-0.009969745955065482
aF-0.028761492025487716
aF-0.02859534952570529
aF-0.0077225060033553885
aF0.0
aF-0.014973574364388752
aF-0.009629268334417405
aF-0.009999384207341271
aF0.0
aF-0.07322670527755515
aF-0.08721840011867084
aF0.0
aF0.0
aF-0.0728333658102438
aF-0.01657806279176377
aF-0.008596461624968871
aF-0.01894928969596649
aF-0.013791116419502845
aF0.08918597206828441
aF-0.006118678854505182
aF0.2626255829922704
aF-0.05164844059146989
aF-0.1722275693495887
aF0.0
aF0.02435964206624524
aF0.006733970720208893
aF0.4748309854176161
aF-0.020185191123406915
aF3.1086244689504386e-17
aF-0.009999999816642981
aF0.9903742003080057
aF0.0
aF-0.007610559416341388
aF-0.03339855493003594
aF7.280225745980751e-05
aF0.24322451402631484
aF1.980996453812258
aF0.5021774490521589
aF-0.04143320902489315
aF-0.13136664071224952
aF0.04490954820087663
aF-0.40991100352088033
aF-0.00999999999999999
aF0.01595675492606953
aF-0.011316876108356036
aF-0.0113874374505082
aF-0.009999999999999839
aF-0.01799027003706622
aF0.041098341097218896
aF-0.009771115340000299
aF0.0
aF0.5002090594823524
aF0.11161064490535458
aF-0.09723280837246055
aF-0.013133803710407007
aF-0.060774790694335716
aF-0.012178645769363245
aF0.0
aF0.008532703560598046
aF-0.009009182555393408
aF0.0
aF-0.009839921320446521
aF-0.01206987936439489
aF-0.05805284820297173
aF-0.03481597473002652
aF-0.05656735564203977
aF-0.014999525380898892
aF0.26444471550651244
aF4.011200361642153e-08
aF0.06378094732747698
aF0.010137332320841956
aF-0.005971374681890521
aF1.828113927882875
aF0.0007069919164543067
aF-0.08064236307248852
aF0.6330759418073555
aF-0.003329999999999851
aF-0.017313929570673833
aF-0.0024610363090105955
aF0.025410458519200558
aF-0.0018919482007351254
aF0.012723105164795755
aF-0.004624485926331369
aF0.0
aF-0.0068760706974951465
aF-0.016708047463090292
aF0.6999711195696514
aF0.011812375247904357
aF-0.00397613179014763
aF-0.016881939833689505
aF-0.00999999999999863
aF0.03295905869063108
aF0.014084877715572491
aF-0.01665604523951667
aF2.9168051002692595e-06
aF3.024742900592514e-11
aF0.0004889999795750742
aF0.11474954354418926
aF-0.03936191618759592
aF0.07515669151291289
aF-0.06306755946296083
aF-0.013817835499900413
aF-0.006664932573818099
aF0.18677613059368955
aF0.2428944180060019
aF-0.01760606482564331
aF-0.006447155160920919
aF-0.009838739021412841
aF0.09211169491890539
aF-0.006670000000000001
aF-0.020652793053456762
aF-0.007385200102476201
aF7.469433395135283e-09
aF-0.02035282897912783
aF0.2822964247889464
aF-0.0033298924666343476
aF0.01730428001457095
aF0.3589834359462167
aF-0.009999962872648151
aF-0.03594445766725628
aF0.006671659781475386
aF0.07434222897743893
aF-0.01934216081467321
aF-0.004911936474117992
aF-0.009911725438118194
aF0.07079716665842137
aF0.01153015205587027
aF-0.012309323110111632
aF-0.009999997853809586
aF-0.009999999999696784
aF0.0
aF-0.009827622506630343
aF0.008522818422151548
aF-0.008722190377659832
aF0.0
aF-0.02232101146912903
aF-0.024998726324806722
aF0.09217285205556264
aF0.1403910667586885
aF-0.0014626000113053608
aF-0.01177074398619841
aF-0.012672759149770816
aF-0.04242184532917771
aF0.015615264410458737
aF0.009242497612608378
aF0.0025536302695138846
aF-0.009999999999946718
aF-0.002357737798224905
aF0.0
aF-0.009370117761252218
aF-0.009871500443044036
aF-0.00492284535575243
aF0.04873638006807218
aF-0.0033223368944871948
aF1.6682055012540164e-06
aF-0.006876070700605782
aF-0.0709032321815283
aF0.21880667291452405
aF-0.014820608023859181
aF-0.026286944411284482
aF-0.031147694302742376
aF-0.017739114366959182
aF2.220446049250313e-18
aF-0.03341756697167263
aF0.005114576984386824
aF0.0020643311806920204
aF-0.004377000999198949
aF0.053558936647388186
aF0.015106703941141327
aF-0.01902509101149514
aF-0.019991310077139775
aF0.01000002929286993
aF-0.019731025171595848
aF-0.03319740814745939
aF-0.009412325420437405
aF0.25720159081635946
aF-0.014235582664974919
aF-0.009187790589173718
aF0.0
aF-0.011481043931633777
aF-0.00929136608446741
aF-0.02118524623597927
aF0.027186794657951978
aF0.8990358454292253
aF-0.00413799023615017
aF-0.032255110344736965
aF-0.014386426619860553
aF0.5277123717873003
aF-0.054455121499897584
aF-0.030786706504436216
aF-0.009896272136294963
aF0.009183281582626877
aF0.03479834091976415
aF-0.021526350762527777
aF-0.009999740426421017
aF0.4962582088265726
aF-0.008865407109929729
aF-0.009468656459937521
aF-0.009999997236726135
aF0.42691104180129325
aF-0.009995977409506163
aF-0.01607582368371952
aF-0.02499035878951715
aF-0.004999893684514843
aF-0.0011441610481772724
aF-0.008128718576817726
aF0.025454705935141694
aF0.006687193639708762
aF0.0
aF-0.0016129004010396013
aF-0.009999999999006874
aF0.5198411573124294
aF-0.01999999999995239
aF-0.04152496224335719
aF0.1572779365731479
aF-0.0015353154499811363
aF-0.01999875760258319
aF0.0821259009719776
aF-0.02583436796641181
aF-0.002141888708711426
aF-0.01
aF0.00504599363298947
aF8.428990838638129e-12
aF-0.015374014179840228
aF0.0
aF-0.0130787086783962
aF-0.034658148399749726
aF0.0038558374033590024
aF0.015853922939084403
aF-0.0188184203649296
aF0.008967361053458398
aF-0.013059074069733296
aF-0.009950897039523397
aF0.005205131217427869
aF-0.02424336433326992
aF0.0
aF0.15410132632586698
aF-0.04010624567183289
aF-0.01748062469471375
aF0.04324833366283954
aF-0.003413989713638001
aF1.2478905294008895
aF0.0
aF-0.008844423886501914
aF0.011682708452783633
aF-0.004456939691945449
aF-0.039429434998829484
aF-0.006744067052220918
aF0.25315865602576565
aF0.0023186740443640764
aF-0.009990773742372512
aF-0.01972907406973331
aF-0.007499990785775635
aF-0.009999999999999962
aF0.03127290215329208
aF-0.0047846644818698054
aF-0.05370730042064316
aF0.013021440002588024
aF-0.009793349299277694
aF-0.01
aF-0.02670815754829215
aF-0.008679151821547042
aF-0.012499385114613156
aF0.011612775480533218
aF-0.009999997236726135
aF0.0038558374032981735
aF0.022448824121397065
aF-0.009999962872648151
aF0.01500639790644629
aF0.0
aF-0.009898538675343191
aF-0.018108580896064007
aF0.0
aF-0.00999654530704617
aF-0.01
aF0.0
aF-0.023749798067995265
aF0.03685112918587624
aF0.0642584576724671
aF-0.00999993279369165
aF-0.007981737994238416
aF-0.01497938794274005
aF-0.017981737994238408
aF-0.008898131100778858
aF0.0005213823019958431
aF-0.009999999999952387
aF-0.031278552082606575
aF-0.0744041259952207
aF0.012257394461600162
aF-0.0729997173104124
aF-0.009678724335859742
aF-0.016429441345548024
aF-0.01907919544304143
aF0.08135228078483743
aF-0.02415732100494076
aF-0.021099017693293178
aF6.082911951921232e-14
aF-0.0673149477627878
aF-0.011898754988047027
aF0.0
aF-0.046740080817405605
aF-0.009999677076980023
aF4.4408920985006264e-17
aF0.028360583721713784
aF0.04690184662612487
aF-0.00806095300469715
aF0.0
aF0.5136243502933362
aF-0.025652941541497967
aF-0.012509304491447552
aF-0.017043462216180576
aF-0.01652129274698112
aF-0.009998936939737715
aF-0.009996308242823732
aF-0.009999999999999998
aF-0.008128718576817726
aF0.016787927636334802
aF-0.009999999996114941
aF0.7781455164703227
aF0.18725647759149777
aF1.5723381099097545e-06
aF-0.007067878150182683
aF0.0
aF2.6589224428900105e-05
aF0.023003583392884875
aF-0.019842510415265732
aF-0.03273588837726572
aF0.0
aF-0.016322859137824865
aF-0.019385785485549555
aF-0.0061746407183091235
aF-0.01323172781636548
aF0.0043855001900293105
aF-0.006650217709559297
aF-0.02042159369591862
aF-0.019971598606063845
aF0.045525171000655174
aF-0.009443099532528578
aF-0.0002750715497355041
aF-0.01
aF-0.00911153521246951
aF-0.044728864912637854
aF-0.0099907314502313
aF-0.019998528901691806
aF0.24502258043954625
aF-0.02567883926813818
aF0.13891668647307398
aF-0.008557342180585683
aF0.011059661017191282
aF0.5161962362043235
aF-0.006659366799921164
aF-0.014676812794787582
aF-0.009999517733344279
aF-0.019678936301921555
aF-0.009953739129845382
aF-6.844524153655496e-05
aF0.0
aF-0.02138929176580215
aF-0.0200012473788891
aF0.024859427263867077
aF0.008499032275420145
aF0.00010146132465650659
aF-0.004452256688210967
aF-0.013329995505336876
aF7.469433395135283e-09
aF-0.0023716552045907084
aF-0.0182871770226258
aF-0.0027562029070209897
aF0.1593564752906094
aF-0.009999962872648151
aF-0.04671304525409072
aF-0.029941205718046766
aF-0.0038681760684013723
aF-0.01430914851656886
aF-0.006584614205457827
aF0.9122370390956644
aF-0.009998559733966605
aF-0.01
aF0.005785912932689125
aF0.4802496338929394
aF0.029924711528719936
aF0.026091259122957754
aF0.509516326550454
aF0.022531129886217242
aF-0.009999995777395994
aF-0.10206269493680334
aF0.0
aF1.1489329495623886
aF0.005000000000893526
aF-0.07188143778506177
aF0.0
aF0.025919098985991273
aF0.5398180534789546
aF-0.018108553529850503
aF-0.00865748592695931
aF-0.019964887862761512
aF-0.009999967247146439
aF2.1268006250310165
aF0.0
aF-0.10064733066858166
aF0.006346346624276002
aF-0.006999999999999999
aF-0.009950897039523397
aF-0.010980975972400085
aF0.06207050439208685
aF0.08214475771636226
aF0.06897004905970501
aF-0.013329138166246446
aF0.1053136694331801
aF-0.015774681312559755
aF0.7536750093614779
aF-0.024937989259532094
aF-0.08293417008249573
aF-0.0005789405494846475
aF-0.009999794467081649
aF-0.040233446312984346
aF-0.00999589741801279
aF-0.01157308273256785
aF-0.004620637610260643
aF-0.07987039942110666
aF-0.009976649474981517
aF1.3947049021797
aF0.2587947513365848
aF-0.04900939049020582
aF-0.009902192952058391
aF0.0
aF-0.019696714392500453
aF0.00010146132465650659
aF0.02088015289599246
aF-0.04214627691153356
aF0.0
aF-0.0265451760908793
aF0.09577929637341959
aF0.007579157485102515
aF0.0010261362986887642
aF-0.007981737994238416
aF0.01251352273933657
aF-0.05828920773087449
aF-0.01999999926229519
aF-0.029215658249543856
aF-0.014999043396936983
aF0.0
aF-0.048765564762204124
aF-0.00999999999999863
aF0.9349336781729571
aF-0.027107526204009226
aF-0.019999999842453084
aF-0.016037761878513537
aF-0.009999999999971044
aF-0.008978194310425075
aF9.226257627488188e-06
aF-0.01431133205100152
aF-0.029143099079449727
aF-0.02669220448539656
aF-0.006121643274459788
aF-0.004999049248566774
aF-0.022438711680315766
aF-0.012218278622814481
aF-0.009980461398530488
aF-0.009175769513897048
aF-0.014439330955465946
aF0.34563037087027454
aF-0.06764195039928973
aF1.202970137019204
aF-0.008403875121815337
aF-0.009015136360547602
aF0.029810555419330108
aF-0.00530567330617978
aF-0.027753149580779023
aF-0.05957791128402739
aF-0.02997488559372926
aF-0.04914817228713969
aF-0.02610156274960681
aF-0.06305174315091516
aF-0.0045885715457106005
aF-0.009871124853559616
aF-0.03151320949078516
aF0.32256122498872214
aF-0.031053587536597198
aF0.00011068758231258746
aF5.566658245470535e-14
aF1.4456620215777023
aF-0.01
aF-0.045736342052879256
aF0.9781605483092541
aF-0.019999999296328702
aF0.014193431723452502
aF0.007773264259704883
aF-0.013093585734761319
aF-0.007710247102436343
aF-0.01949798224175986
aF-0.0039027481628032728
aF-0.028719055014284345
aF-0.01876499752877014
aF0.0
aF-0.01
aF-0.015986651392028598
aF2.4739721733855875
aF1.8991862564183921
aF0.007080909633193744
aF0.3832648813877531
aF-0.0149869959368658
aF0.005965735252818131
aF1.6397837826742516
aF-0.033354974222836634
aF-0.027807787941138435
aF-0.025974164584740778
aF-0.019998098498261754
aF0.01547450596205057
aF-0.028826770925304047
aF0.22658928384463206
aF0.0
aF-0.005648394869918645
aF-0.009886560489987185
aF0.08470239895384103
aF-0.009999999999006874
aF-0.015122538462556517
aF0.20855076179031334
aF-0.008128718576817726
aF-0.020631027830263212
aF-0.009887593302660688
aF2.220446049250313e-18
aF-0.01553951469769748
aF-0.00999997820830735
aF-0.009999943157120796
aF-0.022255616826325826
aF0.0
aF0.0
aF-0.12764379678806873
aF2.651944467898215
aF0.4206308089028294
aF0.0
aF1.2140061523531005
aF-0.005000798730211699
aF0.006799332772548822
aF0.010758290339627897
aF-0.008865407109929729
aF0.22321143817194325
aF0.4910656166042447
aF0.01578077113717396
aF-0.009650824071251179
aF-0.004243387656954537
aF-0.019500606226597238
aF2.220446049250313e-18
aF-0.008829998181051627
aF-0.009999999867394622
aF-0.01
aF-0.010779598224680925
aF0.16950148079398705
aF0.0644210940620457
aF0.15930020788563787
aF0.005922503228599555
aF0.0
aF0.007416876225673467
aF0.607500225438143
aF0.003442414936923096
aF0.13084980977406094
aF-0.010393655056947991
aF-0.009349823630382639
aF-0.015617861660276766
aF-0.008255327299698129
aF0.33435290365978526
aF0.0
aF-0.006498556245660872
aF-0.01
aF-0.028682549568548325
aF-0.024990458688015308
aF0.5015313665224462
aF-0.02978169808175603
aF-0.0038254953779681047
aF0.018383228995016647
aF-0.040127956711820734
aF0.0
aF-0.009478011313391287
aF0.0055166807326108
aF0.002129820540846574
aF-0.00999594738990007
aF-0.019976815063609092
aF-0.00921865635165065
aF-0.0030601681847352985
aF0.11258962423678541
aF-0.011814022463369728
aF0.0
aF-0.015201482034438468
aF-0.009999999999999426
aF-0.013317031612920313
aF2.731148640577885e-16
aF-0.00996107613393209
aF-0.028454570093747633
aF3.048529423343993e-09
aF-0.06448873333479628
aF-0.060234091226123894
aF0.00501036047022246
aF-0.009999987787625323
aF-0.027428083233781993
aF0.016875058935592182
aF0.9430473456660788
aF-0.004999993260318592
aF-0.017386454710146753
aF-0.009999999998477758
aF-0.016969644666989095
aF-0.008131907875263047
aF-0.004999987890169896
aF0.0
aF-0.008664729303404336
aF-0.009522270877297064
aF0.0
aF-0.016669986511287226
aF0.021741183764756238
aF-0.017761871125882
aF-0.009997435458705557
aF0.0
aF2.3141362953255484
aF0.0
aF0.0001498892812375252
aF-0.008865407109929729
aF-0.06105608814807346
aF-0.019152594039411698
aF-0.008128718576817726
aF-0.029807128730128182
aF-0.009972589542726958
aF-0.020779867123822404
aF-0.01
aF-0.009601761466959074
aF-0.009871500443044036
aF-0.009945257324176046
aF-0.009053368071824271
aF-0.019442135450418355
aF0.0
aF-0.009999999999696784
aF-0.017406725812044787
aF-0.009999999997391642
aF-0.0435107339746938
aF-0.0031702703682303076
aF0.08913012968338184
aF-0.0033208537000391026
aF0.008212438932762347
aF-0.01966885964491941
aF-0.0742164144559674
aF-0.46922211563465815
aF0.001361158641485635
aF0.009772204369959446
aF-0.009847053195263739
aF-0.02132186165472029
aF-0.03486450073954501
aF0.03502700329961444
aF-0.024806370656236736
aF0.06911189964244066
aF0.0006976698993249588
aF-0.017521543673931356
aF-0.0009689801904584237
aF0.0006292950734631198
aF8.428990838638129e-12
aF-0.00782611234378804
aF0.034547896422833325
aF-0.014493021439884006
aF-0.009342771138056895
aF-0.005894528442016603
aF0.2090567890135854
aF-0.017287045979664697
aF-0.04853355345428706
aF-0.009999997853809586
aF-0.006043743567255421
aF-0.014148282921276133
aF0.006202820924975326
aF0.009559526890805121
aF0.048949892407475444
aF-0.02825391735400802
aF-0.006960053541897266
aF0.00035702563328630834
aF0.46228494047864055
aF-0.03995861166737233
aF-0.009991884794604609
aF0.1357441411669313
aF-0.013247094899510741
aF0.1229023179912597
aF1.046349714542557
aF-0.03718953264825981
aF0.09914559770436732
aF-0.008253917486613437
aF0.12074838424569558
aF-0.00752045623359439
aF-0.08893571143574018
aF-0.019697537390832257
aF0.005015298335771869
aF-0.009999999999999998
aF0.0
aF-0.009958059601540501
aF2.6589224428900105e-05
aF-0.02412906900520243
aF-0.024189569297254587
aF0.5818719056647939
aF0.050267900216524816
aF-0.04756538505949682
aF2.731148640577885e-16
aF-0.0024999999941542838
aF-0.04399182588219486
aF-0.04353044920102904
aF-0.01
aF-0.00999913594167794
aF2.6624395846295278e-05
aF-0.03579738340478945
aF0.0988714031649075
aF0.005115145324076778
aF-0.016283616261223897
aF-0.01481502069975246
aF-0.04777844778649571
aF-0.033890210825072556
aF-0.00999999999346327
aF0.795319206020326
aF0.0
aF-0.04107978333859602
aF0.041243209535648036
aF0.1056543445664724
aF-0.008823160676842697
aF-0.008279643192762318
aF-0.004864212686588489
aF-0.004999643021193571
aF0.6986631989752919
aF0.0
aF0.30125674243726425
aF0.10712682804440961
aF-0.006248398986935312
aF-0.01320848369384148
aF1.7816887844844767
aF0.0
aF0.07054589545450939
aF0.19517359313184957
aF-0.013512433686815525
aF-0.034322697302743024
aF0.08278404184069614
aF0.10422014545778928
aF0.0029266116270115507
aF-0.009998278623034953
aF-0.008959996987404864
aF0.0004595742798437774
aF1.4320404031330596
aF-0.0212727816872392
aF-0.23949234304705863
aF0.0
aF-0.34282980955703257
aF-0.009999999991318625
aF0.0
aF0.055347370170220164
aF0.16836843455054865
aF0.056666880903812396
aF-0.01999996739657109
aF-0.013505973131793619
aF-0.047843722065656576
aF0.16853131767160162
aF-0.026637439313352967
aF0.04975377052419742
aF-0.0246443548011259
aF-0.019720768653135882
aF0.0005924616800712679
aF0.0
aF-0.01
aF0.00022448333774013028
aF0.43853932666111645
aF0.0171771359011964
aF-0.012487099186024184
aF0.007528808316064171
aF0.4733823551032746
aF-0.018467837127133863
aF-0.05309262837211394
aF2.731148640577885e-16
aF-0.009999562376691204
aF-0.1673358482158075
aF0.293861294927337
aF3.477752092852497
aF1.707966985211415
aF0.06941440415239353
aF3.739744319989009
aF0.4488061717264557
aF0.6802860564355645
aF-0.055855385761877006
aF2.1187677369716704
aF0.29144272601612914
aF-0.0705326105709519
aF0.07021381642727192
aF0.04950147932085929
aF-0.004999999973026886
aF-0.006148393686759922
aF0.45420551506215817
aF4.268082786777432
aF4.014181234607025
aF1.6033670976860412
aF0.005698853231039673
aF-0.017452144486506505
aF-0.026644168230098682
aF-0.03813486063281456
aF-0.009996741892284383
aF4.0875515660639055
aF0.4993439374007466
aF-0.009992254431735615
aF0.008812511094552729
aF8.519635497755696e-06
aF0.019224467344320026
aF-0.019823547995778856
aF-0.004434787706626753
aF-0.05990264969997117
aF0.4547475646349824
aF-0.007359372153796596
aF3.7636097756536566
aF-0.03362416632888006
aF8.519635497755696e-06
aF2.2402819719187934
aF0.036264838886747995
aF0.03881682345380382
aF0.0620939211741916
aF-0.019999838886879964
aF4.32972708812569
aF1.6121810235960123
aF4.250143197951732
aF0.007854427959604431
aF-0.019999787369029257
aF0.4935472815732132
aF0.05518203322732363
aF0.048134233181366254
aF0.006925803633132369
aF-0.061259714577761186
aF-0.029985061009210792
aF0.5490343330134849
aF1.3780512659264679
aF-0.019990747876737304
aF-0.055855385761877006
aF4.326623968548564
aF-0.019994294837121493
aF-0.016942513523344617
aF0.09645472130550947
aF0.016267294749212454
aF0.079622301407543
aF0.2647559286216346
aF-0.11331269212750666
aF-0.017073759898542505
aF-0.022293174197888514
aF-0.10415016547936692
aF-0.007840446724250104
aF-0.009999996902950892
aF0.6505790213017932
aF0.20123058666979354
aF0.17170961165538567
aF4.2652278154017145
aF3.4774826882821834
aF0.11220557443044289
aF-0.04099794378529368
aF0.008812511094552729
aF-0.03663854837869697
aF1.4627095004328943
aF2.9724193419878375
aF2.3339959414777325
aF-0.07594533213172763
aF-0.026644168230098682
aF0.07156352953888587
aF-0.009999999999873315
aF2.8447214647210406
aF0.015004259817748878
aF0.27825361125049647
aF0.023692341793473903
aF0.6462727315291108
aF-0.03886558914748384
aF3.2671450740529693
aF1.2895173120639287
aF0.2543566590810253
aF-0.018853869178405647
aF-0.01885087482057502
aF0.6529743678239442
aF0.026040432342706653
aF3.7398637388867972
aF-0.07167091961491408
aF-0.019823547995778856
aF1.0267889258380645
aF0.09106029278634237
aF0.005056093549721444
aF3.7720690072951735
aF-0.055855385761877006
aF2.7768675253836124
aF0.037920236638324986
aF4.208479853083728
aF4.103322039944214
aF1.2352853752163104
aF0.6251588175302609
aF0.21713755922773795
aF-0.009999947929663001
aF-0.029935996332010915
aF3.6683037291127407
aF-0.01898709938518395
aF0.23487831849642868
aF0.9720397731346747
aF3.223901146043318e-11
aF4.4807980163752825
aF0.0
aF-0.03438636711372472
aF0.5865735719055064
aF-0.107499457817464
aF3.739744319989009
aF-0.06588871715163536
aF1.1439507099778428
aF-0.045954308636291484
aF3.739874319923655
aF0.0027772569827674252
aF-0.04991159698711651
aF0.6376051600567655
aF-0.04754619150305312
aF-0.05859169348988211
aF-0.005900850544086886
aF-0.014820899447721773
aF0.7338526617042801
aF0.05445920332000863
aF0.001578243149538312
aF0.17170961165538567
aF-0.03412576342613447
aF-0.031088765093066524
aF8.519635497755696e-06
aF0.20380331032559873
aF-0.004999434380003894
aF-0.055855385761877006
aF4.228031969529939
aF0.1730181141234229
aF0.19486788252028314
aF-0.009999999816642981
aF0.008603575279393127
aF0.04367213417478058
aF0.11333777015008548
aF-0.009718421033423186
aF0.015004259817748878
aF-0.052525385761877014
aF3.4774826882821834
aF0.0
aF0.010007549145238284
aF0.18738350841519202
aF0.02280334329226769
aF2.8933555405228333
aF-0.016473846295548968
aF4.3461877872987404
aF0.18800879503195264
aF0.0022575246688292766
aF0.02491238192456654
aF0.06913342794537637
aF1.123514839067477
aF3.739874319923655
aF-0.025502764144307796
aF0.2580163448889792
aF3.126147505539823
aF3.7398637388867972
aF0.03881682345380382
aF-0.013192198051449345
aF0.16357068340173908
aF0.00852585065097596
aF-0.025867026426282344
aF-0.019302252669891364
aF3.305467011216479e-13
aF-0.01885087482057502
aF4.204661082800301
aF0.2954017007579146
aF0.6233900378573018
aF2.6586286309458202
aF-0.01860054286025757
aF-0.028135000505295327
aF1.020531989613838
aF1.25841041572253
aF2.7603608839556135
aF0.050660298936500155
aF-0.05023646372601834
aF-0.029991768699580763
aF-0.009973150108988138
aF2.759987930388493
aF-0.08101736519110452
aF0.014224467344320025
aF4.201307569138557
aF2.2693977090507826
aF2.1379628488738485
aF0.00573738862644659
aF-0.1231165767418529
aF0.16786177781593872
aF4.203965309709833
aF4.071710748180294
aF-0.00999973865790468
aF2.316398184376567e-11
aF-0.007839556622694812
aF-0.019538560628533687
aF0.1016202821258125
aF-0.018998963715291667
aF0.06444573741217535
aF0.5288453060233392
aF0.0
aF-0.03749885481393373
aF-0.019991587593849856
aF3.7635480193962065
aF-0.04915663070603161
aF-0.0033032977882121273
aF0.6998658042410812
aF-0.015745194067105752
aF0.0040680824887898304
aF1.2376552919031092
aF0.005020199723608194
aF0.0038936504756261828
aF0.014480375232842612
aF0.00726794441890046
aF4.218564346360943
aF0.3730045271087574
aF1.5039755120384364
aF2.911597222376847
aF0.3553180291226876
aF0.21149785599541923
aF0.03255020359927839
aF-0.13417880694566583
aF0.013375408553720618
aF-0.01999999999939902
aF4.213318461139806
aF-0.013576371302670488
aF2.7571045338424627
aF2.553648491551669
aF0.45355290724925545
aF0.0913361824466953
aF-0.009871500443044036
aF-0.005521520567062772
aF-0.047877776531737144
aF2.239921972082975
aF1.8852601689430044
aF0.0
aF3.771999007464711
aF0.07354986898776585
aF-0.007327795778691117
aF0.050060066341953084
aF-0.009973998930967416
aF-0.014999434365174886
aF-0.07639458029759276
aF-0.08092226620251951
aF0.07379378146253687
aF4.1922747933863285
aF0.035104148039105436
aF0.03533406463724547
aF-0.04479906965173955
aF0.06650977951426626
aF-0.04653936146588111
aF-0.03429491509931896
aF3.771999007464711
aF0.5127289231981934
aF7.288569249253029e-09
aF0.06830440415239353
aF-0.00628774286841197
aF0.012892075328100326
aF0.49323405536649095
aF0.028277265237040803
aF0.1901946211491234
aF0.27464371427740214
aF4.192574414863367
aF-0.06710810883702106
aF-0.029604228447772413
aF0.009115869311647633
aF0.8414549861848158
aF-0.009946513744297619
aF0.0
aF0.024435750194369575
aF3.73968166911177
aF-0.004252285658028504
aF-0.026644168230098682
aF1.050677337968753
aF-0.035570240296267944
aF-0.022433058662579466
aF-0.05841316099296455
aF-0.00999999993882847
aF-0.011751928080941032
aF0.2107319410921241
aF1.4645918867707157
aF2.288685272097589
aF-0.015272724102846757
aF3.261069548362981
aF0.030585677973016947
aF0.0
aF0.01745720277100697
aF0.057815730440390505
aF0.07568357103607692
aF-0.019990747876737304
aF3.7399937388214433
aF8.519635497755696e-06
aF-0.029311402633336175
aF0.7052548512791461
aF3.771999007464711
aF0.19660697662238413
aF1.3952716955589
aF-0.01
aF0.21150043646477537
aF0.4884569428600759
aF0.09378498935825005
aF0.2560980885873202
aF0.3543304324322859
aF-0.012023664910351518
aF-0.03999176869954829
aF0.22682641467006204
aF0.8661645444406333
aF0.02500377457261914
aF-0.21165861929654498
aF4.204574198043926
aF0.0016521890291610192
aF0.023692341793473903
aF0.005056093549721444
aF-0.009999787369029687
aF-0.04882365049618514
aF-0.019602294540316985
aF1.8152055401896316
aF0.007344049057492013
aF0.17170961165538567
aF0.03881682345380382
aF-0.02827597880485716
aF4.054570625350125
aF0.11257589102144035
aF0.00019858504898834562
aF-0.009999677076980023
aF3.9414327591027045
aF0.005297326336005598
aF4.326922555189604
aF1.5919812034606222
aF-0.007946237828984211
aF-0.009999999999999995
aF-0.044224280196340324
aF0.04267905081804239
aF-0.01914995212395227
aF-0.061980428341574814
aF0.011296726719925059
aF0.20123058666979354
aF0.52826795962169
aF-0.08321167605221919
aF-0.029985101121214407
aF0.3768251268934545
aF3.1618122622091636
aF0.5322653510050309
aF-0.006669999999997467
aF0.005056093549721444
aF-0.0909112439745547
aF0.023692341793473903
aF0.08316551985181998
aF4.3269425161083745
aF-0.009999947929663001
aF0.015004259817748878
aF0.07817539737439563
aF-0.013524614868216107
aF1.1526287504350965
aF-0.08356388428405684
aF0.6011494327710256
aF0.16662834962891318
aF-0.07751131998439052
aF0.010004259817750147
aF0.4542128368337676
aF1.3536894592121174
aF0.015004259817748878
aF3.739744319989009
aF-0.008816829894599847
aF2.759978039099006
aF0.2122678358720779
aF-0.01
aF0.9958077200414299
aF0.4793375804765946
aF1.5001162984048084
aF0.4537903068311024
aF0.22645668296596858
aF0.006958727673501721
aF0.20123058666979354
aF0.02506520764069759
aF1.0089437681758506
aF0.02591033975726817
aF0.029652032833962148
aF-0.0921826561146732
aF-0.0012604223863546815
aF0.4807438508007414
aF-0.01859639384037989
aF0.0
aF-0.009350957018316525
aF0.36390627718510754
aF-0.009999996902950892
aF-0.01393973348764102
aF0.005
aF-0.019999996902950894
aF-0.04999919165336975
aF0.0
aF0.0
aF0.0
aF0.007501902276000522
aF-0.009871500443044036
aF-0.011968400766631526
aF0.0033519025330556017
aF-0.00499967552845547
aF0.002501902276000523
aF0.0
aF0.007063573681372693
aF0.4492424805015597
aF-0.013940443075229556
aF-0.012900401798647178
aF0.016456344658456565
aF0.005
aF0.005004180167904622
aF8.360335809242114e-06
aF0.0
aF0.0
aF0.5478206892872103
aF0.0014751279300303961
aF4.242214795644003
aF-0.05984658365302507
aF3.739874319923655
aF-0.039999194750418854
aF-0.0024192931066815107
aF-0.019871500438685873
aF3.4869487949467493
aF-0.012894773696447794
aF0.17170961165538567
aF-0.0005457458168937382
aF2.473240765736246
aF8.360335809242114e-06
aF0.7466718351459083
aF-0.019087808780911143
aF-0.030670591436870252
aF0.01037943107703076
aF0.052951316678171385
aF-0.009999180972027745
aF0.0
aF-0.013940443075229556
aF3.477881463325101
aF-0.009999434380003894
aF0.02298405553434383
aF0.09623466533035531
aF-0.014999434365174886
aF-0.04915663070603161
aF3.4774826882821834
aF-0.019919209757363967
aF0.5045691135612558
aF0.31837005691035736
aF4.326922555189604
aF-0.01844560017713635
aF0.4543321121200113
aF-0.01871990969462467
aF-0.03778057987600579
aF0.03832928059982237
aF-0.005617502533513424
aF-0.055508820833689326
aF0.0021861301776232005
aF-0.02998339682586142
aF-0.06618610404814568
aF0.06585714060691973
aF0.762699064042464
aF0.5574749228885275
aF-0.012351108707188564
aF-0.12441178081711385
aF-0.01844560017713635
aF0.045012097632228326
aF0.8686441537909644
aF0.2107319410921241
aF0.25040283120624757
aF1.9022760005225903e-06
aF0.014969926892382501
aF0.07733365234261488
aF-0.009871500443044036
aF3.2960814951160877
aF4.232198679850279
aF-0.028162421822726106
aF0.06771968610436999
aF0.01013190570941963
aF6.233513705211635e-12
aF-0.03984257953034873
aF-0.018057810971608308
aF0.1791808022462182
aF-0.10815836397776887
aF0.121713242245451
aF-0.019999996750921584
aF-0.009871500443044036
aF0.023692341793473903
aF-0.009999996902950892
aF-0.00999999973263002
aF-0.016645545543194085
aF-0.024856865215339956
aF0.0
aF0.3230039967441851
aF-0.00999997820830735
aF3.576073001065962
aF0.030594832784787585
aF0.0
aF-0.03384221544509809
aF-0.009999996902950892
aF-0.046502781537258696
aF2.6061006323827174
aF0.010007549145238284
aF2.5356152918307324
aF0.00046129683233839036
aF-0.009999999969752569
aF0.5983182632411365
aF-0.06892583553495528
aF-0.06904829257688283
aF-0.021989519866511806
aF-0.009871500443044036
aF-0.009871500443044036
aF-0.02788201432306025
aF0.016456344658456565
aF0.008956344658456565
aF0.0
aF0.01037943107703076
aF0.0
aF0.00039357368137269214
aF0.0
aF0.0
asVmu
p9
F0.0
sb.