ccopy_reg
_reconstructor
p0
(clrsgd
LogisticRegressionSGD
p1
c__builtin__
object
p2
Ntp3
Rp4
(dp5
Veta
p6
F0.01
sVweight
p7
(lp8
F-2.5149929870780523e-12
aF-3.241892935778073e-08
aF-0.002230273574845876
aF-6.524810714341574e-06
aF-4.907071460228865e-19
aF-0.005338222024516821
aF-3.603502302295934e-06
aF0.002465703499494641
aF-0.00013582343000190144
aF0.0
aF-0.0002536635134793483
aF-2.1533038029677327e-05
aF-3.241892935778073e-08
aF-3.2567858137192318e-06
aF0.00010485669291279995
aF-1.2185763735635644e-08
aF-5.295379861909579e-16
aF-9.682069350535815e-25
aF4.669054790178451e-10
aF1.0215959488227338e-20
aF-0.0028177832765740574
aF-2.144302232604458e-27
aF-8.267102339134074e-23
aF0.0
aF-1.3909442103060106e-09
aF1.0956447156887984e-09
aF1.5100563531956542e-22
aF-2.581388278036966e-11
aF-4.9660991097874495e-25
aF-2.3462802996559084e-08
aF2.3643814275892693e-18
aF2.4893335612266494e-15
aF-0.0034744899101377875
aF0.002462660742733429
aF-1.3111914968568335e-19
aF1.312960098338957e-20
aF-1.201710865213142e-06
aF-3.3335116014222197e-26
aF4.987222113614846e-08
aF0.0
aF-4.186721783079364e-09
aF-7.51989625612622e-05
aF-1.292228917235998e-07
aF-3.852248259967682e-05
aF3.1714515026859206e-13
aF-3.5677702697497924e-08
aF0.0
aF-0.0001062823340967111
aF-3.356940607755286e-09
aF-1.6443784699729694e-28
aF0.0
aF-1.6016176718239928e-16
aF0.00014042429437347554
aF-1.3467023540991081e-05
aF5.2983972462764577e-08
aF-1.8988831310937429e-06
aF-2.2525130999453854e-05
aF-0.00010251908846490512
aF1.3672374650706529e-12
aF3.440117067824336e-06
aF-0.0008131147919903674
aF-0.00046223618853453064
aF0.000995930556449927
aF-0.0007128855654742426
aF-3.4170974888924254e-24
aF-3.8290257346565757e-25
aF-3.522920401194659e-08
aF-4.603773750643961e-25
aF4.2633256778014604e-20
aF-9.37125975211124e-10
aF-0.00019420558883684753
aF0.0
aF-1.9867471797765297e-21
aF-7.693784351357515e-05
aF0.0
aF-0.0008131147919903674
aF4.838540751055331e-13
aF1.624672606110445e-07
aF-1.311193127274596e-19
aF-1.3131592727021713e-24
aF2.4908922994871104e-15
aF-3.186449929109645e-08
aF1.6800232844751378e-09
aF-2.4942064673267097e-19
aF0.0
aF-3.1689917827871264e-15
aF-3.5677801268595864e-08
aF-7.931033430942808e-19
aF0.0
aF-1.410106896068498e-15
aF-0.0003885463034451614
aF-8.891269488891609e-13
aF0.0
aF-0.00016610388726458062
aF0.001612459717838818
aF-3.51203838897142e-16
aF0.0005466355963422689
aF0.0
aF0.0003989152896297443
aF-2.8835244765976968e-08
aF-0.005679072471402078
aF-8.300137416122225e-23
aF-0.0007587243665363971
aF-3.3335116014222197e-26
aF2.3148147693527873e-16
aF-8.167618143418584e-06
aF0.0017004572681741763
aF0.0
aF-0.00032244752908303944
aF-8.344765534370239e-07
aF-4.297657313117404e-23
aF-1.739519650140594e-28
aF-8.312154862924099e-11
aF-0.0033218305706076115
aF3.8870604488474904e-24
aF-1.5513313266540006e-17
aF6.247568226506278e-06
aF0.0
aF-2.525909201018172e-11
aF-7.418073770588011e-07
aF-0.0010523989450205553
aF-0.0022062478520235972
aF-0.004539527161124782
aF-1.9867471797765297e-21
aF-0.0002972486612318603
aF0.0
aF7.301069381679557e-07
aF-2.4581033351510028e-25
aF2.249179849346316e-17
aF0.0
aF-2.4942064579510637e-19
aF-3.51203838897142e-16
aF3.4702975333178837e-07
aF-1.1691383765848064e-25
aF-1.4696123660119828e-09
aF-0.00437614082166204
aF7.540688084601968e-15
aF-9.90547039105834e-12
aF-1.4045462113249444e-06
aF-0.0004712357783341336
aF-0.0020839949886508873
aF-0.0050542759313258676
aF-0.0007914683679219223
aF-6.655411194692079e-22
aF-2.0287956964079112e-13
aF-0.0005691442758806671
aF-2.2597053771448338e-13
aF-6.944626712568888e-07
aF2.249179849346316e-17
aF1.6842635125275054e-09
aF-1.1681822305941742e-20
aF-2.1134728127032368e-19
aF0.00058360940729503
aF-0.0009935901267015036
aF-2.933917927923741e-07
aF-1.2922405487534577e-07
aF0.00017968996272275914
aF3.077622213147148e-10
aF-0.0028153653218754514
aF4.625913978807328e-07
aF-3.832409809678183e-12
aF0.0
aF-0.007322938892872435
aF0.0012356144259184042
aF-1.6998963825421748e-10
aF-0.001615137868904816
aF0.0
aF0.0
aF-4.1761517750703894e-17
aF-1.4543485541072273e-06
aF-0.0006154259042208501
aF-0.0027410509455322125
aF-1.9895529231057334e-07
aF0.0
aF-6.287144631853764e-28
aF0.0010751699016200722
aF-4.2313876650247374e-13
aF0.00024636173769581997
aF-0.00016354842663804966
aF-4.086193525493327e-19
aF-0.00016212396649564515
aF-2.3527136572170908e-08
aF6.217979768064378e-29
aF-0.002420515609132152
aF-0.0007397597887165543
aF-5.4407298844457525e-08
aF-3.7494236015532565e-11
aF-0.0039181671551099155
aF0.004594761267905072
aF-2.9158843783224453e-10
aF-1.15957728175513e-19
aF-0.005074055724276076
aF0.0
aF-0.005059238291243391
aF-3.832409809678183e-12
aF-1.4107409149084167e-09
aF-2.302840144642212e-05
aF2.6131532806181276e-09
aF-0.0028536913663729196
aF-1.3877362857678254e-12
aF-5.653142740273001e-16
aF-1.353363769651688e-13
aF0.0005077093735894854
aF-8.49570655744972e-24
aF-1.965422340701509e-21
aF-2.6603243147973317e-22
aF-0.0009790520663377192
aF-1.6977093805879692e-24
aF-1.37281161304746e-12
aF-0.001144878617017872
aF-6.412726224472355e-19
aF-5.377614430683855e-15
aF-4.186721783079364e-09
aF-5.188231103864325e-10
aF-6.42809382063118e-11
aF0.0
aF-1.4105720980396753e-09
aF-4.653608413019363e-19
aF-0.001068213546311681
aF-0.000296612939482624
aF-0.0014304160558306711
aF-2.45895207340009e-07
aF0.0
aF0.0010829812994401521
aF-4.0472645955892176e-25
aF-1.454543524560382e-21
aF-2.4273542668406248e-08
aF0.0033013941561797263
aF-0.00477356911426188
aF1.670794328074502e-24
aF-0.0008587893075593793
aF-2.8842200641318237e-26
aF-4.603773750643961e-25
aF-1.360192144062391e-09
aF0.0
aF-2.6603243147973317e-22
aF-1.4069036121508854e-23
aF-1.7679088856022207e-14
aF0.0
aF0.0007534968334334622
aF-0.006534244696723435
aF-2.8366614965617094e-05
aF0.0026930487381696985
aF-0.003594317928830939
aF-2.2618959881092283e-07
aF3.8001341784420707e-25
aF-0.01654564924446239
aF0.0
aF-4.901101624802713e-09
aF-4.6107030453292595e-12
aF-1.1616116603562315e-21
aF-8.739909381559683e-10
aF-4.0938441709919114e-13
aF-9.263463538340265e-22
aF-7.519896256126283e-05
aF1.670794328074502e-24
aF-1.1177696639745842e-08
aF0.0
aF-0.00020433170591745273
aF-8.243253850629982e-06
aF-0.0023111803642538596
aF0.0
aF-4.284601711151245e-08
aF0.0005331275295128572
aF0.0005360673120075949
aF-1.1097826215638945e-10
aF2.685829603497163e-06
aF-1.9633928243466156e-12
aF-8.092045665139258e-07
aF-0.0023111803642538397
aF-1.7403664737020206e-06
aF-1.6964247299928052e-07
aF-8.829268800294133e-29
aF-6.567815177662783e-11
aF1.7480106835469744e-16
aF2.3435934662329687e-09
aF5.385799955312447e-27
aF-4.880205183420607e-27
aF0.0
aF-2.5371893746078355e-09
aF0.0
aF-1.2237299075992929e-05
aF-1.4100604866452676e-07
aF-5.085741720532714e-19
aF-0.00013723675578726084
aF-1.3357907121010593e-09
aF-1.0623733996827158e-10
aF-1.3817411354063315e-13
aF-1.6755393706551452e-05
aF-4.807488225810903e-14
aF-1.2072292885813574e-22
aF2.1575383813774937e-14
aF4.0285978327535355e-19
aF-2.61709432656916e-10
aF-4.328473046059322e-21
aF0.0001273713360387105
aF-3.064592952008527e-27
aF1.3671910082984649e-12
aF-1.0771784299201543e-11
aF-2.744995904385988e-09
aF-5.3314062161461e-08
aF-4.8814932700224384e-05
aF-1.557026001548721e-20
aF2.0577644497806304e-13
aF-9.57296696111598e-07
aF-1.4105720980396753e-09
aF-0.0031913191359233856
aF-1.5847029155833924e-25
aF0.0
aF1.3672374650706529e-12
aF2.5337912379471946e-20
aF-0.00016565722712776193
aF-7.684388775138007e-08
aF-1.0364583063573262e-09
aF-3.744454785144592e-05
aF-5.0379186005454176e-05
aF-6.708573130837817e-07
aF-0.0022219313679578967
aF2.490892287059884e-15
aF-4.603773750643961e-25
aF0.0003535773067086553
aF-5.4170477202665424e-11
aF-5.509708981400419e-12
aF-6.383455954876909e-10
aF-1.0729360997109058e-07
aF-1.4104415044421583e-10
aF-6.710240647863004e-09
aF-3.7951700882027754e-08
aF-1.5847029155833924e-25
aF-0.0010082374958506383
aF-3.241892935778073e-08
aF4.234782762248884e-09
aF0.0
aF0.0
aF-1.0917811967299398e-20
aF-0.005518732798269897
aF-6.383455954876909e-10
aF-3.819497556719406e-22
aF-2.4780298988236953e-05
aF-0.0001911792739331429
aF-0.0021356747567117906
aF-2.0166331294637767e-24
aF-4.1456363829956386e-22
aF2.0150266572072936e-16
aF-6.502280251334759e-11
aF0.000533127529512751
aF1.62454640253739e-08
aF-1.980286593509202e-08
aF-0.007407218856863009
aF-0.00037675550574511223
aF-7.130944127611038e-06
aF0.002993664394133747
aF-1.7990134553464764e-27
aF8.101215366640619e-11
aF-2.939440994679362e-16
aF0.0
aF-0.0013586431418002108
aF-1.339247128075236e-08
aF-8.766207679695927e-26
aF-1.4069036121508854e-23
aF-0.000107248617918875
aF0.0005841381309521958
aF-0.0009217844279713815
aF0.0
aF-1.965422340701509e-21
aF0.0
aF-5.872024357930199e-08
aF0.00045425569110738755
aF3.8813027450084536e-16
aF1.5254773488049967e-23
aF4.1710010527111516e-05
aF0.0030811508090376884
aF-0.0001955708700797839
aF-1.3907588585897962e-09
aF0.0
aF-3.2120607999009953e-07
aF-0.0009282188187959528
aF-8.766510807925797e-19
aF0.0
aF-2.6548121320640497e-08
aF0.0
aF-2.8148888568905498e-25
aF1.3737999632738266e-20
aF-1.4446991548532943e-11
aF-6.255855715995001e-07
aF9.42255619342203e-06
aF0.02188165492907109
aF-1.6683213153018023e-14
aF-8.766510807925797e-19
aF-3.051292120949138e-15
aF-6.2083803928640705e-18
aF-2.2649179868105434e-25
aF-0.0023111803642538397
aF-6.101670475646138e-14
aF-0.004218592414567899
aF0.0018341826150745965
aF1.8370177384840018e-13
aF4.7768572382992384e-08
aF0.003277975485759897
aF-4.998810896776405e-08
aF0.0
aF-1.3357907187747903e-09
aF0.0
aF8.130770346297766e-18
aF4.0841016800503796e-07
aF0.0003535774314664819
aF-6.6634176653935e-28
aF-0.006024448085895387
aF-1.2229501000577092e-07
aF-0.0035942978395782153
aF0.0
aF-0.0015811524285100093
aF-3.634613463627602e-24
aF-5.292382779692332e-07
aF-1.5667083522035493e-11
aF-0.00348781840894274
aF-3.947042997259071e-09
aF2.368611515087959e-14
aF-0.006750189391079905
aF-1.2585830120957747e-08
aF2.2455277590513548e-17
aF-3.933448526018944e-19
aF-1.965422340701509e-21
aF9.638819335450535e-15
aF1.690961972939039e-26
aF-1.3926071533712074e-15
aF4.0863725466347434e-26
aF0.0017283389898814026
aF0.0007970012301223235
aF-0.0025879905762069984
aF-1.5900771425383365e-19
aF0.0
aF-1.3357907121010593e-09
aF-8.349133706852269e-23
aF-3.0689850998509043e-09
aF4.858930745654611e-12
aF-0.00012585888370108037
aF-3.0444222878303838e-05
aF2.3416890503579544e-05
aF-3.089436946317856e-06
aF0.0015441642619378332
aF-1.8779192401353088e-06
aF-2.76633820737454e-13
aF-6.800849056543589e-10
aF0.0018716459077944008
aF-3.116695122107855e-10
aF4.838973553661281e-13
aF-0.006024480504824746
aF-1.1422923280191205e-26
aF0.002520626392498813
aF-1.8583144660897835e-05
aF3.955966749885322e-06
aF0.003134511073841457
aF-0.008076281156786384
aF-4.662004724194858e-15
aF-7.605741760900856e-15
aF-3.605015302453239e-11
aF-0.004467933935997298
aF1.7644286019416948e-13
aF0.0016575055947610242
aF-0.00015828112387220475
aF0.0005519956497715949
aF8.116502988304597e-19
aF2.6116281835746997e-09
aF0.001549888348145708
aF-9.698551371648773e-05
aF-4.315375328504788e-12
aF-0.002155070827016828
aF-1.0784071535037265e-10
aF-1.2072292885813574e-22
aF-1.1188092794409894e-21
aF-7.219110241306593e-15
aF-0.0010948653693225571
aF-8.278934134826071e-10
aF-1.948325800132376e-10
aF-0.002152012782155017
aF-2.4572860535880403e-13
aF-0.0009282188187959528
aF-0.0007572750270284282
aF-8.489693870797406e-28
aF-1.2072292885813574e-22
aF-7.196655293410733e-21
aF-0.0005006582457845973
aF-8.079988928483654e-12
aF0.0001479420039230587
aF1.5515181501071903e-05
aF-0.0048173875186489305
aF-0.0010546705718151312
aF-1.92117160362824e-14
aF-7.271889323780774e-05
aF-2.0913829032090736e-09
aF-1.2257260702650633e-12
aF-1.2237299075992929e-05
aF-9.063722741589865e-12
aF8.101215366640619e-11
aF-1.3466113318044648e-05
aF0.0076999137697588566
aF-5.851663798100632e-23
aF-7.196655293410733e-21
aF-1.2906025505217934e-17
aF-0.008221420272211715
aF-3.230522971252119e-08
aF9.668311893161099e-05
aF-3.333892815263884e-11
aF-0.0027824167809293054
aF0.0033080661565153507
aF0.0016028255309575527
aF-4.484581088603098e-05
aF-0.0010578452874334334
aF-3.3288350072041553e-18
aF3.0389447123031886e-11
aF-0.0049476839010913695
aF0.0
aF-3.633165903458426e-15
aF-0.0007953076082806513
aF-8.561780682188968e-26
aF-1.965422340701509e-21
aF-3.605015302453239e-11
aF-2.2474230244219433e-17
aF0.0
aF-0.00046964597535610456
aF-0.002299171796774117
aF-0.010966151886931806
aF-0.0030576559303564068
aF-1.3237702466259919e-08
aF-0.005749651416110656
aF-0.0016917252234330586
aF-4.284601711151245e-08
aF-7.44629540942678e-06
aF-2.247423024488567e-17
aF-1.965422340701509e-21
aF-1.73533579983729e-12
aF-1.5518747379063634e-24
aF5.300022125116312e-08
aF0.009519225509683038
aF-2.15633880563728e-08
aF-0.00045892227153589317
aF-1.728733119646494e-09
aF7.554792681902535e-15
aF0.00044703434307523984
aF0.0001064787449486143
aF0.00021246097621976947
aF-1.9633928397123416e-12
aF-0.003594648066557412
aF-1.3601698113105774e-09
aF-1.4388385483190773e-05
aF-1.0224268898988468e-05
aF-5.005891358160486e-08
aF-5.741142280625998e-24
aF-1.3085275707016892e-06
aF-0.0032574039835632598
aF-5.713538039418738e-10
aF2.4908922994871104e-15
aF-8.347957093784757e-17
aF-1.013394273321684e-10
aF-2.8336447412818885e-07
aF-8.062998219218752e-13
aF-1.1699104116589239e-06
aF2.602235641550544e-09
aF-0.0010059939514461744
aF0.0
aF-1.0547287459528481e-23
aF-0.0003855640012953806
aF0.012279934448982349
aF-8.359682356369416e-14
aF-0.001763219252661132
aF-0.00017862171502466736
aF-7.002422659737008e-05
aF8.182214616799432e-05
aF-0.0017388152845159897
aF-6.77349868048452e-12
aF-1.3005532419319866e-08
aF0.0005771182590486111
aF-1.965422340701509e-21
aF-3.605015302453239e-11
aF0.00021246190482813814
aF-1.9806381544937377e-14
aF-5.8731877770829064e-24
aF-1.1097836570925066e-10
aF-0.0020782888276282513
aF-1.2050619392046969e-19
aF0.0
aF-2.124762687161315e-07
aF0.0
aF3.2235775786416473e-13
aF-4.7981995554176075e-19
aF-8.494110295947092e-16
aF-0.00014062183744939063
aF0.0
aF0.0008084177189091423
aF4.534047609372922e-18
aF-5.674250289600594e-22
aF-2.1426091740453036e-16
aF-0.007407031393222744
aF-0.0037074482854315637
aF-1.8257006830906382e-14
aF-0.0017908943903164542
aF-0.0018189254517521109
aF-2.526758783615719e-18
aF-3.092214811172705e-13
aF-1.989377656066475e-09
aF-6.216631498595151e-13
aF-6.955064457254103e-28
aF3.0776222131332525e-10
aF-0.0007906378895733266
aF-0.0017561047943765336
aF-0.0023115213770865356
aF-0.0034924119037878184
aF-2.993188451616977e-22
aF0.002107179439481132
aF-3.0440036156525578e-05
aF-7.067513084182338e-07
aF-0.0005471823662775809
aF0.004609340415763925
aF-0.00011243141106719913
aF0.0
aF-4.569929391104344e-05
aF-2.4668873983296377e-09
aF-4.751821654155506e-05
aF0.0
aF-8.659763434905763e-19
aF-0.00010252195754497806
aF-1.7883494922388007e-25
aF1.0211849735591911e-06
aF-1.0809835617469778e-07
aF0.0
aF0.006413920893753616
aF-0.0003421344585326867
aF-0.0024927134608552504
aF0.002422342677332471
aF0.0
aF-0.005060665417043539
aF-0.007592373730403961
aF-8.418566019924332e-07
aF0.0
aF-6.216631498591741e-13
aF1.7355139261224275e-16
aF-0.0006893868278788758
aF8.902611371845563e-19
aF0.0
aF-1.407530842963001e-15
aF0.00031983205313310966
aF-0.005679072471402078
aF-1.07717841680824e-11
aF-1.0352519070391393e-10
aF0.01054338133757603
aF4.4586276588688985e-20
aF-4.1576882423929164e-05
aF0.002466880155483876
aF-1.478603599689854e-18
aF-0.006379414037006304
aF-6.871661807424637e-22
aF6.310758066457326e-13
aF-0.003359517680943543
aF1.1814355900034707e-06
aF-5.4486461318363173e-14
aF-1.2296942809121288e-05
aF-0.007413212647471048
aF2.6722848374935277e-16
aF1.538478940804346e-05
aF8.913969528950825e-05
aF-0.00041050225894048633
aF6.814894729770375e-05
aF-7.069833761202944e-23
aF-1.989377656072976e-09
aF-2.990672237653523e-11
aF-9.261851277060898e-07
aF-6.252592335637441e-11
aF-1.3318694189648942e-05
aF-0.0039323086078908
aF4.635204299442007e-28
aF7.301069381679448e-07
aF2.6722848374935277e-16
aF8.711186871340597e-05
aF-2.1501345470016956e-07
aF8.116502990107719e-19
aF-2.6877458264860222e-11
aF-0.0006388776878108265
aF0.0
aF-0.003767337737330764
aF0.0
aF7.577344205059407e-18
aF-1.9464000001900057e-06
aF4.0793536856126865e-13
aF-2.58270721165266e-06
aF-0.00567907275639103
aF-1.4283479928200107e-05
aF-0.00017821627828939324
aF-0.0029591755423785202
aF-2.8835750295365098e-08
aF-6.98578808483947e-06
aF-7.610536502473978e-18
aF0.002107179331640417
aF-0.0001417679743681009
aF-0.000645015774498915
aF0.001626391222941476
aF-0.027197886732269676
aF-1.5067562998347228e-20
aF1.3724143327380403e-11
aF-9.857122259764606e-14
aF-8.729997181021789e-10
aF-6.160040934997183e-22
aF0.0018505684100187897
aF-2.993188451616977e-22
aF1.0619027472080469e-05
aF0.0
aF-6.127765485318148e-12
aF-5.104156914417083e-14
aF-0.00013663482484510545
aF0.0
aF2.0406262584391646e-05
aF-4.631758361376972e-10
aF-1.2478004500399166e-10
aF0.0012396089689768201
aF-0.0002525410505808841
aF-1.1441197090428857e-08
aF-6.327625554283833e-11
aF-0.0014002315506906255
aF0.0
aF1.6243104786314312e-11
aF-1.6965623997913197e-22
aF2.1172737946293726e-06
aF2.153144059883506e-12
aF-4.450310172002362e-14
aF0.0024547817900364656
aF1.2437913326599118e-08
aF-0.0002805763923095959
aF0.00044551984754238096
aF0.00012766195595865959
aF0.00016395560524900516
aF-9.39873743050972e-09
aF-1.7184339428300707e-09
aF-0.0007449499080952487
aF-0.0015761931039336315
aF-1.5228543038287747e-13
aF0.008332199156884696
aF-4.912210593350349e-11
aF-8.092045665139258e-07
aF0.0031709876383834512
aF-0.0001459204027125251
aF4.8495468904920964e-05
aF-0.006595102663630128
aF-2.3463369373440656e-05
aF-0.0007510391018318723
aF-8.243253850607495e-06
aF-0.0016936770367217686
aF0.015982643963359505
aF-3.0585678252812297e-06
aF4.079343636936184e-13
aF-9.905582031866072e-12
aF-8.669820241520334e-09
aF-3.172691237709797e-19
aF-1.0549348413720626e-07
aF-0.0008263193546319772
aF-1.2506775554676043e-10
aF-5.982434836511734e-27
aF-7.070486387202126e-29
aF-6.412726224472355e-19
aF-0.00023527524437301202
aF0.0017062592910162425
aF-0.001966592129770406
aF0.0
aF4.2633256778014604e-20
aF-2.8588133576541543e-07
aF-1.9070824466344693e-22
aF-1.735335799837303e-12
aF-0.0015846955466761264
aF1.8600757174571507e-25
aF-8.850914594960153e-14
aF-0.00024232532580909297
aF1.8733531943870711e-19
aF-1.0272345854257673e-08
aF-0.0035071910927681085
aF2.603395010313207e-15
aF-0.00014062183702846085
aF0.0
aF-0.0018050016508181703
aF-0.006848423730427592
aF-8.084378254641577e-07
aF-7.181703570427468e-19
aF0.0015498883372192453
aF0.00044551984818325786
aF-0.005802129324237239
aF-1.5983576401182786e-07
aF-0.00020870604656916385
aF2.4908922994871104e-15
aF0.004900688687086714
aF7.1699982767076736e-09
aF0.0
aF0.004030544469535225
aF-0.005259938634355118
aF-1.352125861793942e-21
aF3.866239076534723e-05
aF0.0016922602667157655
aF0.002632584337163068
aF-2.2156385189092315e-05
aF-3.6737786556419007e-06
aF0.0
aF-4.1337426270389027e-19
aF-8.897654164525521e-27
aF-0.001000197617638384
aF-4.284601711151245e-08
aF1.0468945847900556e-15
aF2.4359065161732727e-16
aF-1.995844894065443e-28
aF0.00049353329757298
aF-0.003594297839583289
aF-1.858407045946689e-25
aF-3.075883612404189e-12
aF0.004956490779899494
aF-2.236415852630749e-06
aF-3.0706512511894476e-09
aF0.0
aF-0.00016477487857800738
aF-2.4183538391636256e-15
aF-0.001037554359616212
aF-0.001078145908268038
aF0.00395629497174727
aF-0.007919948395109556
aF-0.003359572682185233
aF0.002896240339550146
aF-0.0005006904846366982
aF-7.418448157101575e-07
aF0.0
aF0.00596148825550869
aF6.2337518020266085e-06
aF-4.388589413648963e-22
aF0.0
aF-3.5189920708790045e-12
aF0.01054085752165741
aF-1.3584095099158629e-10
aF-1.0776707721657283e-26
aF-4.958646087654621e-10
aF-9.050300207737031e-11
aF-7.028052115129093e-07
aF1.1950588709593121e-09
aF-6.374716464307844e-09
aF0.0
aF-2.5962068933706317e-20
aF-1.4312690473306757e-20
aF5.1079749466603314e-14
aF-0.003737249422666211
aF-0.00010262604254616093
aF-6.691515052451108e-07
aF0.0015498345040655345
aF-0.0076997825683108295
aF-0.0012912649150443284
aF-0.0011373091288111867
aF-2.85872550364042e-07
aF0.00011304977308140192
aF-1.7972368300691767e-10
aF-1.5639651178297404e-05
aF-0.0015122549032542463
aF0.0023453851853833555
aF-0.00020717581993985002
aF-0.0015823068794128467
aF0.0035216926487984315
aF-1.557111277053777e-20
aF-1.799458040172189e-15
aF-1.1854288500839752e-07
aF0.014718395165246118
aF-1.299650206274322e-14
aF-0.0007176189552751906
aF-8.316618357250631e-05
aF-5.385174075781872e-07
aF0.021672010986724048
aF-0.009835475825818117
aF-2.2612611967747808e-07
aF-1.3211893007662728e-11
aF4.626274480337573e-07
aF-0.0009964604351249211
aF-0.00043008215061415356
aF-5.806991913259809e-20
aF0.0112163527718261
aF-5.006685741075071e-14
aF2.3686115155862788e-14
aF-4.3078332915957304e-13
aF0.0
aF-0.0008902375494769866
aF-0.003737249422666211
aF-0.009865502887754342
aF-0.007429187778411837
aF-3.6922107674707954e-18
aF-1.6782024579298676e-05
aF0.0
aF6.785044127043498e-08
aF-0.004495116155858825
aF0.00718225596905971
aF-4.284356629953066e-05
aF-5.545940876722322e-09
aF2.7968802004393094e-19
aF0.0006628551029676162
aF-0.004105757573508149
aF-0.005429096084812686
aF-0.000253661053173541
aF-0.0007572368509641467
aF-0.0006310231431044832
aF-0.002037592220820531
aF-2.052362261846068e-26
aF1.0093748139820956e-05
aF-0.0005311601883273724
aF-4.983966086755499e-09
aF-2.147732296076663e-12
aF0.0
aF-7.751682531694398e-28
aF-7.825814521776677e-07
aF-2.731180010831492e-24
aF-6.708573127506113e-07
aF-3.7903193565697866e-16
aF2.4908922994885137e-15
aF-1.3404725615050519e-05
aF-1.0917811967299398e-20
aF-1.3111915021142169e-19
aF-1.3878908848593937e-09
aF-1.0600402984879026e-10
aF-1.113811757571943e-14
aF6.5041542899305995e-06
aF-7.309467487990213e-07
aF-1.856472964723568e-09
aF-0.0004248054997752645
aF-0.0005439959868844537
aF-0.0001435513414015965
aF0.0
aF-1.86127702784366e-08
aF-6.939733370587541e-18
aF9.397254728104255e-20
aF-2.485239941313976e-09
aF4.2840667685517405e-10
aF-4.2313876650247374e-13
aF0.0
aF-0.002160987087808496
aF-1.4312276328423344e-13
aF3.49593077800441e-11
aF-2.1735583992586675e-09
aF-3.677448600336261e-22
aF0.00123561440273288
aF0.001845621331887937
aF0.0
aF0.0012356144259188918
aF-7.070486387202126e-29
aF0.00123561442591895
aF-2.1075322925683153e-16
aF-3.116638350664015e-10
aF-0.00049747645320189
aF-0.0005443299167087718
aF-0.0012644259045690514
aF-2.419769555698891e-16
aF-3.6226656509369545e-10
aF0.0014899430974519325
aF-5.143122922506507e-05
aF0.004509314562769647
aF5.3570703698041214e-05
aF0.0
aF6.929377102898723e-14
aF2.6080614858741927e-08
aF-2.3694015433420173e-07
aF-0.00030252136729975136
aF-4.539096670099e-14
aF0.0012356144259188918
aF-6.25585571598569e-07
aF0.0
aF6.832711616176552e-25
aF0.00010485669291279995
aF0.0
aF8.468586217928602e-10
aF-2.1735583992586675e-09
aF-1.462798439533038e-13
aF-7.309467487990213e-07
aF-2.947726356443575e-13
aF0.00123292558735937
aF0.0
aF-0.0027831149486861532
aF-2.075110435430305e-05
aF-0.002817629889527181
aF7.565777205262787e-08
aF-5.7276766536809945e-21
aF-1.0622706516626242e-10
aF7.084301577989432e-05
aF-1.0168457593581328e-15
aF-3.967787887868405e-14
aF-3.5266669902452416e-16
aF-1.7163498277314945e-20
aF-7.175692147223801e-27
aF-0.005300348488580526
aF-8.167677505821796e-06
aF-0.000643792519186467
aF0.0010700231438203337
aF0.0
aF-4.167107247133686e-15
aF-1.1730319323795765e-05
aF0.0
aF-1.1849721714295763e-05
aF-7.296973969931745e-05
aF0.004364327635865454
aF6.740354272447898e-08
aF-2.2156385189080403e-05
aF-0.00011723271854228976
aF0.004453335379114647
aF-5.4746452976519864e-11
aF-3.5974561341527174e-20
aF-4.447804064810618e-05
aF-6.25585571598569e-07
aF3.272522491481605e-28
aF0.0
aF-9.90809952604819e-07
aF-1.928011856766806e-25
aF7.301069381679448e-07
aF-5.954635430830179e-06
aF-6.311691203697661e-23
aF1.8015945383134982e-05
aF-7.430440444351926e-18
aF-0.008040706059859137
aF-4.391985503895137e-06
aF9.335825849888397e-23
aF-3.954314113838233e-08
aF-4.4710243513046443e-26
aF-4.621476809203085e-09
aF-4.3131629095159494e-05
aF-1.5722748135636524e-17
aF0.0077358811936583775
aF-6.918879147831239e-15
aF-2.4444024400734177e-26
aF-0.005272976430870164
aF-1.6016176718239928e-16
aF1.0675626257899275e-08
aF-0.005017491021948446
aF-2.1930205453238489e-10
aF6.740354272446515e-08
aF-0.007335509345666251
aF-4.624602866446763e-24
aF-8.41939567700991e-06
aF-4.33235164368527e-05
aF-0.002588564672659512
aF-3.092214811172705e-13
aF0.000675891549801138
aF-0.0017275945543105571
aF-1.3132214524998466e-24
aF-5.659565748816462e-17
aF0.0006363968418858785
aF0.0
aF1.3737999632738266e-20
aF-3.6912821842165707e-17
aF-4.596017941450132e-09
aF-9.375467079682883e-07
aF-4.7621143518734527e-11
aF-1.4098607044407303e-20
aF-0.002619837557169897
aF-5.57692988881581e-26
aF-1.3225530621764221e-12
aF-0.00025366111162733267
aF-7.432509646232984e-13
aF-3.5023357574946724e-10
aF-1.6917430819652656e-07
aF-2.6372860091157262e-15
aF-1.1087980965962596e-12
aF-4.808298704539266e-12
aF-0.0037637608587320712
aF0.0
aF4.635204299442007e-28
aF-0.0005628723775271243
aF-2.0881758181918735e-18
aF-8.635983798949082e-16
aF-7.699532708737574e-05
aF4.737932273340942e-14
aF-5.3397721209504336e-24
aF0.0
aF-1.2578542428398026e-15
aF-3.442759167348904e-18
aF5.428620647681006e-21
aF-0.0013111641366401717
aF-0.0007760227885573445
aF-1.1444282334673663e-12
aF-2.9477263564434724e-13
aF-1.060039403468991e-10
aF-4.539096670132028e-14
aF0.0
aF-2.3796584128246225e-10
aF-0.0001794814381421612
aF0.005459970273512047
aF-0.0052729764284860274
aF-2.0005474871445933e-07
aF-2.1184798656433994e-15
aF-4.733670789374718e-08
aF-7.032719986242376e-06
aF-4.880205183420607e-27
aF-2.510112690675719e-13
aF-0.0024665414539431774
aF-2.6548121320640497e-08
aF-0.0035083264601703103
aF-1.339247128075236e-08
aF-4.176151877372591e-17
aF-1.0634683451869835e-13
aF-1.6504694316662304e-07
aF-5.509708981400419e-12
aF-1.3357907121010593e-09
aF-8.561780682188968e-26
aF-4.2313876650247374e-13
aF-0.013548672206950618
aF-0.00048084099261515225
aF-2.829328976113474e-21
aF-3.570109633518329e-07
aF-4.603773750643961e-25
aF-6.918879147831239e-15
aF-0.0007563893477356689
aF1.624672606110445e-07
aF-4.807488225810903e-14
aF3.8813027450084536e-16
aF-0.007335509345666251
aF-7.699532708737574e-05
aF-0.0017635364738560937
aF-0.004940489939363987
aF-2.855736104239946e-21
aF2.5829527201397343e-06
aF-0.0012995007454977916
aF-2.6430112508646307e-07
aF0.0
aF-3.130251251203959e-23
aF-1.6450728225975134e-06
aF-2.7487938415777924e-07
aF-0.009085093260849405
aF-0.00013165337152799727
aF-0.00020829102702711027
aF8.718114881452356e-05
aF-1.2503403763284544e-10
aF-5.939799611048682e-09
aF-5.126531587707114e-05
aF0.0
aF-0.00633380044031768
aF-1.8580338325005198e-09
aF0.0002185716592396906
aF-0.008037790615174968
aF-6.712045238345015e-07
aF0.0
aF-3.603502302295934e-06
aF0.0002054618690534366
aF-0.003232584476109457
aF-0.0009717271921361084
aF-1.591190812089633e-08
aF-3.3825223026151268e-06
aF-0.0037665959061485513
aF-8.277024834031584e-06
aF-4.808298704539266e-12
aF-6.708573127505959e-07
aF-8.49570655744972e-24
aF-1.3690634781331726e-25
aF-0.0003024793853712844
aF0.0
aF-2.0005474871445933e-07
aF0.00011897353318430908
aF-4.933892943000699e-15
aF7.624983881563478e-07
aF-5.898931454345554e-18
aF-0.0015829367359853654
aF-0.0028235238493469306
aF-7.175692147223801e-27
aF-0.004114547800912073
aF-0.005679072471402078
aF0.0017970421486794414
aF-0.007407031393222744
aF-0.0013374107234880622
aF5.1079749466603314e-14
aF0.0005836094072950392
aF-1.4446173308480949e-11
aF-0.00019420558883684753
aF-0.0021356747567117906
aF-0.0022062478520235972
aF0.0017004572681741763
aF-0.004539527161124782
aF-2.2525130999453854e-05
aF-0.006534244696723435
aF-8.167618143418584e-06
aF-0.006335635035880867
aF-0.00019397294014069434
aF-0.00437614082166204
aF-7.952381527714768e-20
aF-3.3335116014222197e-26
aF-1.4069036121508854e-23
aF0.0005519956497715949
aF-1.4105720980396753e-09
aF-5.6165343088054665e-24
aF0.0
aF-3.633165903458426e-15
aF-0.000507450919716853
aF-2.4561264795208713e-09
aF-3.086421503238506e-05
aF-4.284601711151245e-08
aF-7.931033430942808e-19
aF-0.0017388152845159897
aF-2.4581033351510028e-25
aF-0.007699782572609367
aF-2.4283275424374652e-08
aF-0.0007587243665363971
aF-3.795508909048901e-24
aF-3.315669902769163e-11
aF-6.127774695649704e-12
aF-3.0444222878303838e-05
aF-0.00047123577832847846
aF0.0005835980326660826
aF0.0009264672073161108
aF3.9696102686495333e-19
aF-8.786687140101356e-12
aF1.690961972939039e-26
aF0.0
aF-3.086421503238506e-05
aF5.8477699100082364e-24
aF-0.0013111641366355085
aF-0.00023527527592180156
aF-8.702658281530864e-09
aF-0.006534244696723435
aF-5.3024597910467536e-15
aF0.0
aF-1.3357907121010593e-09
aF0.002221422251136111
aF-8.128155021432107e-26
aF-0.0008322016146759138
aF0.0
aF0.0
aF2.1392935137876212e-28
aF-7.035332554307654e-20
aF1.9311882003263772e-07
aF-0.005357169839737476
aF-9.687532073792077e-07
aF-0.0017275947034996436
aF1.1950588706827188e-09
aF-1.0432739361714017e-28
aF2.4480645838214297e-11
aF-8.450606703436048e-22
aF-3.31566990276987e-11
aF0.001070073212639386
aF0.0016922602667157655
aF-6.661298997638848e-09
aF-1.4057797597824477e-25
aF0.0
aF0.0008084177189091423
aF-0.015734973513769547
aF0.0
aF-1.1861284979656668e-20
aF2.040626259772676e-05
aF-0.0015846955466761264
aF2.164834439124199e-16
aF-4.880028812249739e-24
aF-6.10167047564608e-14
aF-1.2906025505217934e-17
aF-4.7355837637703764e-08
aF-0.0007914683679925789
aF2.0014317758023827e-07
aF-0.0009166549249133878
aF-1.6565600280727296e-06
aF-7.973513302386866e-21
aF-2.474340813159575e-06
aF-0.003959766129399201
aF0.0015817010537754793
aF-3.3335116014222197e-26
aF9.12176126500487e-23
aF-4.284601711151245e-08
aF-0.0015761931002327638
aF8.101215366640619e-11
aF-2.4581033351510028e-25
aF-1.9868580669908164e-15
aF-4.388589413648963e-22
aF-9.671723365295075e-07
aF-1.2449014443728302e-28
aF-1.2585830120957747e-08
aF-4.668597715409e-08
aF-8.348389941979134e-17
aF-1.4283479928200107e-05
aF-2.3006597003194662e-05
aF2.4908922994871104e-15
aF-0.003359517680943543
aF-2.000548789640897e-07
aF-0.0011992808451450248
aF-4.112643563501483e-06
aF-0.0011992808451450248
aF-0.0012897878314123829
aF3.4883272943244345e-25
aF0.0
aF-0.0001911792739331429
aF0.0
aF-0.000152488258615949
aF-1.0622706516626242e-10
aF-3.423484997361078e-12
aF0.00011476475099386623
aF-5.914627211913341e-11
aF-0.0006081155279003657
aF-9.687532073792077e-07
aF0.0005360673120075949
aF-9.287044138204888e-07
aF-0.001037554359616212
aF-2.3184110291751698e-10
aF1.8618084488673851e-09
aF-0.0012995007454977916
aF-2.8565716812604764e-07
aF-7.519896256126283e-05
aF8.902611371845563e-19
aF-4.8814932700224384e-05
aF3.48877412073532e-11
aF-4.69510148205266e-06
aF-0.00039916344518460073
aF2.6080581140870605e-08
aF-2.2612611967747808e-07
aF-6.381142081648748e-22
aF1.3737999632738266e-20
aF-5.832632838685745e-23
aF-0.005790505772141739
aF-0.0006429365103655138
aF3.47088776302571e-05
aF-1.3601698113083475e-09
aF1.0619027471962967e-05
aF-2.883524391063556e-08
aF0.000995930556449927
aF-0.004528450828277445
aF-2.492945179335446e-26
aF-2.2685234313858e-21
aF-2.6017677045577307e-11
aF-1.322592387927061e-05
aF-1.5667083522035493e-11
aF-3.427591447196871e-11
aF-1.3111914968568335e-19
aF-1.7120045348748234e-07
aF-2.5467677218603238e-06
aF2.4907763381243156e-15
aF0.0
aF-8.278934134826071e-10
aF-8.527550505111686e-25
aF0.0005835980326660826
aF0.0005836094072950392
aF-3.6128302750560335e-06
aF0.0
aF-4.284601711151245e-08
aF-4.5693713232094815e-15
aF0.0015498882562070924
aF-0.00017106942885459426
aF-5.3078529203554086e-15
aF-0.0038048205805456983
aF-8.267102339134074e-23
aF-6.327625554283833e-11
aF-0.0008902362895722866
aF0.0
aF-0.006750189391079905
aF3.2235775786416473e-13
aF-0.0013374107234880622
aF3.9696102686495333e-19
aF3.272522491481605e-28
aF-1.4312276328423344e-13
aF0.0
aF0.0037282627869520716
aF-7.934837450769943e-25
aF-8.739909381559683e-10
aF-2.4975977215593546e-14
aF3.4883272943244345e-25
aF-0.002791191488190155
aF4.76647287444477e-14
aF-2.85872550364042e-07
aF-0.0002525410505808841
aF-2.6710090556850542e-05
aF-0.001101570193049888
aF-1.8612770288107873e-08
aF-0.00017106942885459426
aF0.0014623364169252958
aF1.031490631886321e-06
aF0.002473270219376975
aF-7.80313941956078e-08
aF-2.398181562084868e-28
aF-1.4564272577598908e-21
aF-7.751682531694398e-28
aF-0.0012776500609463567
aF-1.2068223995977988e-10
aF-1.1556440778900975e-10
aF9.041000527109524e-05
aF-0.00020870604656916385
aF-6.765279912112438e-13
aF2.6952536846364288e-05
aF-3.018294494765378e-05
aF-1.1009334584174855e-06
aF1.284305686683245e-12
aF-1.619966595843233e-27
aF-0.0033524838905183776
aF0.0
aF0.0
aF-4.0012510355627086e-08
aF-2.820538721938589e-19
aF0.00012744086208460795
aF-5.466853435670682e-16
aF-3.898811388340792e-21
aF4.723695128731215e-07
aF1.69133678088174e-05
aF-1.56692936500683e-11
aF-8.886621763418766e-05
aF-5.293023120899495e-07
aF-0.0007760227885573445
aF-0.0013111655326849502
aF-0.000960217829220885
aF-7.489481546486399e-05
aF0.0
aF-0.0005006582457915218
aF-2.0333980696740786e-22
aF-1.5092753135298607e-09
aF2.9275212727199136e-20
aF2.4908922994871104e-15
aF0.0003535774317426937
aF-1.0499882480979518e-06
aF-0.0019770016017034197
aF-0.0007262875960676213
aF-2.6584233649999313e-08
aF3.072376375957093e-17
aF-3.7440238896150804e-09
aF-0.000466270981598433
aF1.5424331244722253e-13
aF2.715350541786305e-13
aF2.384498358614305e-15
aF-2.4059647395308073e-09
aF0.0003535773067086553
aF-1.2922289172354147e-07
aF-1.2469626395414672e-17
aF-6.252918967981096e-27
aF-1.213810756983096e-11
aF-4.880205183420607e-27
aF1.8254170722398026e-15
aF-5.509463974415093e-18
aF-0.00033858901062154643
aF-0.00013783539403927685
aF-1.6591505487698667e-20
aF0.0
aF4.625913978807328e-07
aF-1.2236849502089293e-10
aF-5.075784400933517e-22
aF-1.1556440778900975e-10
aF-1.7282969899804655e-15
aF3.629509283124896e-13
aF6.920283485206e-22
aF-0.005718442646957058
aF-0.0067341394707608505
aF-0.0004178447234774664
aF-0.0027883684477481257
aF0.013740402309842227
aF-0.0011480729072755828
aF-2.1188914656654223e-17
aF-1.0134127866193608e-10
aF0.0
aF-8.693906895617933e-17
aF2.4908922994871104e-15
aF-3.363014524243161e-05
aF-0.0009547170884395876
aF-0.0008991702715995816
aF-5.257385565833846e-28
aF-2.368490144601838e-22
aF-0.0005074484635903737
aF-7.973513302386866e-21
aF-0.0023111803642538397
aF-8.450606703436048e-22
aF-5.509463974415093e-18
aF-6.590920567230238e-22
aF-6.285934085494352e-11
aF-8.277024834031584e-06
aF-5.995365702981713e-19
aF-1.230835634406215e-14
aF0.0119348671883822
aF-0.0006154259042208501
aF7.27185594198977e-09
aF-5.939799611048682e-09
aF-1.4201337251167443e-25
aF-1.6542531801847474e-12
aF-2.3918154942099157e-06
aF-9.287044141137924e-07
aF-9.287044138204888e-07
aF0.0
aF-0.0008922846840636761
aF-2.2276039379412864e-19
aF-0.0009166549249133878
aF-0.003994090991710645
aF-0.0006154259042208501
aF-0.006826281251739165
aF-0.00013969200372929594
aF-5.487772025404182e-19
aF-1.250340376754782e-10
aF2.4908922994703916e-15
aF-5.959088064884015e-07
aF-0.00090030480584184
aF0.0014623364169252958
aF1.5510845013468485e-05
aF-0.0014820910695037691
aF0.0
aF-1.1009334582894904e-06
aF-3.389769919008316e-14
aF-1.769626029094644e-12
aF-1.3357907121010593e-09
aF-0.00016609971188889498
aF-8.167677505821796e-06
aF-1.9975484489317542e-21
aF-7.838931952063136e-08
aF-1.0364583063573262e-09
aF0.0002976222914841087
aF1.2437911782468261e-08
aF0.00020045993519121518
aF0.002107179439481132
aF-0.007699782571771276
aF4.609820105756008e-05
aF-0.005251842476374572
aF-0.003617390111766825
aF0.0
aF-7.070486387202126e-29
aF-7.070486387202126e-29
aF0.0021782336364226775
aF-3.292052341175055e-08
aF-2.368490144601838e-22
aF-1.3111914968568335e-19
aF-7.178744643976217e-05
aF-6.708573127505959e-07
aF-2.855736104239946e-21
aF-7.934837450769943e-25
aF-2.0881758181918735e-18
aF-3.3730739917475474e-27
aF-2.744976371292488e-09
aF-7.590970812903357e-05
aF-9.578920937183571e-17
aF-1.8101310876060593e-05
aF-0.00016327938257361055
aF-2.2156385189080403e-05
aF-9.572970997934908e-07
aF-5.3024597910467536e-15
aF-4.146833237391887e-18
aF0.00016980455614823143
aF4.839520319008096e-13
aF-0.014264855254695853
aF-0.0009461278095385373
aF-2.456126479520902e-09
aF-0.0008594150590688856
aF2.3637739203102833e-18
aF-4.340763847002696e-10
aF-1.2143909833280023e-05
aF-1.4201337251167443e-25
aF5.385799955312447e-27
aF-1.3818473119565007e-09
aF0.0
aF-4.719594508426684e-06
aF-2.8649737799368645e-24
aF0.0
aF6.193391949149266e-16
aF-0.0012995007454977916
aF0.0
aF4.838973557405342e-13
aF-0.004796059557587926
aF-8.09229380784804e-12
aF-6.830781102394681e-16
aF-2.0972339961337443e-22
aF-2.8589801019515056e-18
aF-0.005679072757186302
aF2.7304931142115653e-23
aF-4.651355399279442e-17
aF-7.974883227952604e-14
aF-1.1744572744403456e-21
aF0.0
aF-2.314488050871138e-27
aF-1.0708622552728745e-24
aF-6.852625286031135e-14
aF-0.009066193653258078
aF-6.996372951935995e-05
aF-6.359411940351348e-16
aF2.674915783423943e-07
aF0.0013441374603196667
aF-0.0013568524985035854
aF-4.9413675737908794e-05
aF-3.6062631616560036e-11
aF-1.0445329541689268e-06
aF0.0
aF1.2044190495703057e-18
aF-1.3419359816131348e-22
aF-1.4098607044407303e-20
aF-5.466856776579528e-16
aF-0.005378150776027739
aF0.010726686907199178
aF7.38241883077869e-17
aF-7.310390471144694e-07
aF-7.105691435280716e-24
aF-1.913284717415736e-05
aF-0.001055457695346855
aF-0.007699782568293994
aF-0.007407033252595204
aF-0.007699782572609367
aF-6.359411940351348e-16
aF-2.9330282638511214e-16
aF-3.082491204376234e-09
aF-3.2420612663028136e-09
aF-2.2156385189080403e-05
aF-0.000471235884332419
aF-2.280607526533974e-18
aF-1.585367178378244e-14
aF1.825417072156711e-15
aF-1.3225522657856128e-12
aF-3.241892935778093e-08
aF-3.570109633518329e-07
aF-1.619966595843233e-27
aF-0.00032656539948098314
aF-0.004758395986013648
aF-1.1750268798796167e-16
aF1.6840417245463243e-23
aF-3.241892935778073e-08
aF0.0002795672606170636
aF-1.283489179310713e-16
aF0.007702264635963076
aF-2.8649737799368645e-24
aF-6.548517814149824e-18
aF-1.0839667540015887e-16
aF-1.0851353512058053e-28
aF-7.070486387202126e-29
aF-2.3834017447520357e-09
aF-0.0017330763308201077
aF-1.767908963789021e-14
aF-7.915777040820848e-22
aF2.440378316814052e-12
aF-1.4105720980396753e-09
aF-3.092214811172705e-13
aF-1.591190812089633e-08
aF-0.005813068774433802
aF0.0
aF-1.1713365246461372e-07
aF0.0007799516159905567
aF-1.1750268798796167e-16
aF-2.6017677045577307e-11
aF-2.368490144601838e-22
aF-1.56692936500683e-11
aF0.002107179439481132
aF-2.837574174133118e-17
aF0.0
aF-2.4975977215593546e-14
aF-6.031835143455174e-05
aF-1.326761901009046e-06
aF-6.830781102356296e-16
aF1.3737999632738266e-20
aF-1.8756657289343123e-07
aF-3.208314560300882e-06
aF-8.128155021432107e-26
aF-1.326761901009046e-06
aF0.0004952592623528177
aF-1.5117742066659524e-06
aF-0.0015778087140649753
aF8.689825682006422e-09
aF-0.0039348767956172625
aF-0.004910562154358156
aF0.0
aF-2.1121869269313453e-07
aF-1.619966595843233e-27
aF4.7236963319902747e-07
aF-3.280728138115703e-15
aF0.0
aF-1.386947995663913e-14
aF-2.8565716812604764e-07
aF-4.341629050307814e-07
aF-1.7901744069207911e-12
aF-0.001052417557790622
aF-5.5866265909317735e-08
aF-8.669820241520334e-09
aF-0.003777661665737345
aF-1.070812345437779e-07
aF-2.8148888568905498e-25
aF-5.716983362615445e-07
aF-0.0031037524278382557
aF-4.2314085467829347e-13
aF0.00010647874493965249
aF-0.004011232008391793
aF-1.4615109014756163e-09
aF4.779310019674614e-14
aF-4.838399301139509e-06
aF5.908363363840604e-12
aF-0.004498107202304211
aF-1.027480201405234e-14
aF-3.6173694937965997e-13
aF0.0
aF0.00754382243576169
aF-7.032719986242389e-06
aF-3.5114374726070465e-23
aF2.153144059883506e-12
aF-1.1865361609188561e-07
aF2.617438538351451e-10
aF-1.096784919576199e-06
aF0.00035243748885354655
aF-6.4686478771969685e-21
aF-0.001265396612721089
aF-1.9219364696584994e-05
aF0.0007426932286495835
aF-1.310727145256856e-06
aF-2.0798605328188404e-07
aF0.0003535774317426929
aF-2.4780298988236953e-05
aF-1.0726833307087631e-07
aF-1.481070402206183e-05
aF-0.0014146686021128557
aF-9.837945870781325e-16
aF-0.0004705472103283699
aF-1.4564272577598908e-21
aF-2.2685234313858e-21
aF-1.6443784699729694e-28
aF-1.4627984395363433e-13
aF0.00021246190856479035
aF-2.3990864024810884e-14
aF0.00017952722986856276
aF-0.003480286034373981
aF1.0619027471962967e-05
aF-0.005357169845865147
aF-2.793131127586941e-16
aF-3.354335859662587e-07
aF-0.00018028516102786015
aF-1.7352461872250255e-09
aF-2.7081581652950507e-27
aF0.00010485669291279995
aF1.9255764116560617e-27
aF-1.619966595843233e-27
aF-2.7611955060842145e-06
aF-2.865543207255743e-07
aF0.0
aF-1.2587710311309541e-11
aF0.0
aF-3.4247847080369184e-09
aF-3.1354731083531876e-12
aF-0.0015503791453369243
aF-7.400813512443378e-26
aF0.00035358945800764377
aF-8.615337383382126e-24
aF0.016118321618962435
aF4.826844880073275e-13
aF-7.296973969931043e-05
aF-0.000507450919716853
aF-1.1540032335329146e-13
aF-2.4283275424374652e-08
aF-0.0006096700543974378
aF-3.13009962275637e-23
aF-0.0004638525372418013
aF1.4613282394839708e-07
aF-1.5716905043267757e-19
aF-1.0282891731956306e-17
aF-1.5716905043267757e-19
aF-4.3218832836281964e-27
aF-0.004940489939363987
aF0.00021501392421226532
aF1.0230339184900959e-07
aF-4.176151877372591e-17
aF-0.004479429853927009
aF2.4908922994871104e-15
aF-0.00251052569820885
aF-7.952696903467897e-13
aF-6.0353580915192926e-05
aF0.0
aF-0.0007128855654742426
aF-8.702658281530864e-09
aF-1.4628601273830756e-18
aF-5.558572491249028e-25
aF-1.3419359816131348e-22
aF-2.493500843412644e-28
aF-0.0001277493539897957
aF-2.4780298988236953e-05
aF0.00496496385861836
aF0.00208289457104601
aF-1.6389372805360259e-09
aF-0.0016174961472410418
aF-0.00115440874182261
aF-2.4942064673267097e-19
aF-1.1099754159317779e-09
aF-3.018294494765378e-05
aF-1.816583070153711e-15
aF-2.398181562084868e-28
aF-5.304506645451545e-19
aF-1.6565600280727296e-06
aF-3.7799267329902175e-10
aF-3.0689850998509043e-09
aF-2.3990864024813222e-14
aF-2.1420180790181635e-05
aF-7.561862108357707e-05
aF-1.3888025218089701e-18
aF-2.4780298988236953e-05
aF0.0
aF1.596386295707838e-06
aF-6.013081567734164e-08
aF-1.2423815763250419e-08
aF-7.952381527714768e-20
aF-0.00020674753763274376
aF1.0630775656006272e-05
aF-4.291807192676846e-07
aF-3.6051573412450983e-06
aF-0.0015823133512057343
aF0.0005731423571978482
aF-3.183127285446464e-18
aF-0.0015778087140649745
aF-2.364667965556022e-09
aF-4.5693713232094815e-15
aF-4.297657313117404e-23
aF-0.0015033875465021585
aF9.397254728104255e-20
aF-1.013862029521944e-08
aF0.0
aF-3.226854601125224e-08
aF-1.0634683451869835e-13
aF-1.2906025505217934e-17
aF-0.0005872311336304161
aF0.0
aF-4.2313876650247374e-13
aF1.0078982027115528e-07
aF-1.230835634406215e-14
aF-5.4916743816782844e-18
aF-0.006826281251739165
aF-3.5187089400316086e-17
aF-0.00020870596454761818
aF2.660611316908134e-26
aF-0.0009935901300116641
aF-2.0972339961337443e-22
aF-0.0017778726875619035
aF5.0198558877645656e-06
aF-0.003717633975848627
aF-2.570432083965327e-14
aF-2.9985044628566125e-19
aF-6.849463477325205e-14
aF0.0
aF-5.118352889148043e-07
aF-3.205100550439216e-14
aF0.0
aF-1.6410153497858462e-06
aF0.00270653198236161
aF-5.3670039535149005e-11
aF0.002221422251136111
aF-1.6357091849843542e-28
aF-0.015986244602689728
aF-1.5306589448851126e-13
aF7.301069381679448e-07
aF-0.003959766129399201
aF-0.002386452662567936
aF-0.00447111301036577
aF-0.0005074484635903737
aF-8.942093902760712e-21
aF-9.710248464662454e-05
aF-6.852625286031135e-14
aF9.397254728104255e-20
aF-3.5266669902452416e-16
aF-5.509463974415093e-18
aF-1.7184954302166673e-06
aF0.0
aF-1.0839665856076788e-16
aF-0.0010937082729494023
aF-2.3921458030459344e-09
aF-1.1087980965962596e-12
aF0.002104900263521501
aF2.0017238029612897e-07
aF-1.083154243218638e-07
aF-0.0019293164291661405
aF-0.0013667856859315647
aF-0.003184025503349613
aF4.0863725466347434e-26
aF-0.004261725765441345
aF5.252989480529277e-20
aF-0.006112490536760983
aF-5.118337059359786e-07
aF-5.00589135839351e-08
aF-5.6165343088054665e-24
aF-5.9654243614517e-28
aF-9.184541725804904e-08
aF1.8199253978581287e-15
aF-1.3992142312206232e-12
aF-6.251702010115983e-11
aF-0.005901165830480176
aF-4.035564975118997e-27
aF-0.00010724861788515697
aF-1.4874654022086278e-07
aF-7.610536502473978e-18
aF-6.992560683631004e-21
aF-1.0134177405608958e-10
aF-7.070486387202126e-29
aF-8.331188698646245e-07
aF-3.064829950482269e-10
aF-1.2049488109223177e-13
aF1.5515466490274496e-05
aF2.6131532806182124e-09
aF-9.287044138204888e-07
aF-1.656218181729986e-06
aF-2.3942930461320464e-26
aF-2.2343850162716477e-05
aF0.002000897105384332
aF-0.0004712357783284787
aF0.00032512979564258964
aF-0.0017337911256601038
aF-1.0364583063573262e-09
aF2.1231824183295572e-08
aF-8.559300081514627e-27
aF-4.575163735041553e-05
aF-3.096100283276373e-14
aF6.920283485206e-22
aF0.0
aF-4.001257967363988e-08
aF-0.006055122274996572
aF-2.626597862247568e-13
aF-1.4201337251167443e-25
aF0.0
aF-2.6017677045577307e-11
aF-1.7679088856021797e-14
aF-4.9024700322576906e-12
aF-2.0169983928761768e-24
aF-5.509463974415093e-18
aF-1.7223439859348633e-08
aF-6.25170188377391e-11
aF-4.328473046059322e-21
aF7.715078651855205e-26
aF2.0182106312736057e-14
aF9.375654780392857e-28
aF2.981806120369627e-11
aF7.08341462280384e-05
aF2.6952536846364288e-05
aF-5.55085761148971e-08
aF0.0
aF2.41313119584706e-07
aF-0.0019219519830635154
aF-2.3006597003194662e-05
aF-2.4812223578757803e-26
aF-4.773936521800399e-28
aF0.0
aF-0.0037665959068894687
aF-1.4878784428891972e-08
aF-1.4628601273830756e-18
aF-7.881192358698518e-19
aF0.0
aF-1.5036375820056767e-28
aF-3.205100550439216e-14
aF4.108071697296145e-19
aF-1.0364583063573262e-09
aF-1.4424768948011232e-12
aF-1.8333937778273566e-08
aF-2.5752300311591565e-24
aF0.007174920334336211
aF9.098057175832175e-05
aF-6.127774695649704e-12
aF-7.175692147223801e-27
aF-0.0005440483987282617
aF-8.698596147050323e-27
aF-7.610536502473978e-18
aF-0.005272976430870164
aF-3.710776106359576e-11
aF-1.5065608782066662e-14
aF-5.006685741075071e-14
aF-2.3796584128246225e-10
aF-0.00039916344518460073
aF-1.5716905043267757e-19
aF5.8477699100082364e-24
aF-0.00115440874182261
aF1.3008416464785024e-06
aF1.7082124188823742e-27
aF-9.578920937183571e-17
aF0.0
aF1.3737999632738266e-20
aF-4.5693713232094815e-15
aF-3.633165666609405e-15
aF1.798636882116417e-05
aF-3.241892935778073e-08
aF-1.7403664737020206e-06
aF-7.504394920427642e-11
aF-6.99536482149468e-27
aF-7.070486387202126e-29
aF0.01164615039462981
aF-6.548517814149824e-18
aF1.8822853934739196e-16
aF-2.2156385189080403e-05
aF-0.0008160082291625996
aF-7.804641056340073e-16
aF-0.0007991491583345687
aF-3.619378882630807e-06
aF1.8822853934739196e-16
aF-0.003371764399055415
aF-1.2449014443728302e-28
aF0.0
aF-7.751682531694398e-28
aF-0.0001063829858066049
aF-5.050933622348458e-12
aF-1.5608765055135636e-12
aF0.0
aF-1.9479924078033518e-06
aF-0.0022895660072001912
aF0.0003535774317716768
aF-2.856023534802177e-14
aF-0.0005006582457846028
aF-4.719594508426684e-06
aF0.0010754832809554986
aF0.0010751694041802346
aF-2.653637507787245e-05
aF0.0
aF-1.357931611264038e-10
aF-3.6744566054786654e-05
aF-3.841366943601676e-27
aF-6.402493012194348e-09
aF-6.333066844528389e-10
aF0.006973012394021781
aF-1.4312683983795363e-20
aF-8.561780682188968e-26
aF-0.00012774935395176677
aF8.116502988304597e-19
aF0.0
aF-0.0008324707749533272
aF0.0
aF-4.668597715409e-08
aF-6.412726224472355e-19
aF-3.0607643930552756e-06
aF0.0
aF0.0
aF-1.149527258180638e-11
aF-0.0015761980841994775
aF-1.213810756983096e-11
aF0.0
aF0.0
aF-6.402846282109698e-06
aF-1.3926071533712074e-15
aF-1.0673863543007637e-22
aF-2.4835914763595965e-07
aF0.0
aF-6.6634176653935e-28
aF-2.329467499506867e-15
aF4.411490100676391e-28
aF0.006675174506434021
aF2.4908922994871104e-15
aF-9.578920937183571e-17
aF-0.000870701710792237
aF-0.000798134448010483
aF-3.172691237709797e-19
aF7.271855941989656e-09
aF-0.0002536610535621248
aF-1.7666106273436608e-17
aF-2.5962068933706317e-20
aF-0.0008991703080226366
aF0.0
aF0.00035357743174275086
aF-0.0019007715275299194
aF-7.309467487765292e-07
aF-0.00040092092311239244
aF-0.001074250838411398
aF-1.3927318419817224e-12
aF0.0
aF-0.001613310016198581
aF-2.1735583984748e-09
aF0.0004866130049430243
aF-0.00025636843502888367
aF-4.907071460228865e-19
aF-7.952696903467897e-13
aF-0.00016899542398960652
aF-4.284601711151245e-08
aF3.957681688265266e-07
aF-0.002157514057180661
aF-0.00017950473147871092
aF-4.880310241411062e-06
aF-0.00024263646444295234
aF1.074773061229999e-25
aF-5.872024357930199e-08
aF-2.720144408349829e-20
aF4.2633256778014604e-20
aF-1.874641646309862e-07
aF5.089065080325207e-07
aF-0.0007128855654742426
aF0.0031234887073603693
aF-2.352713657216946e-08
aF-5.6165343088054665e-24
aF-2.4742884875335317e-06
aF-0.0054986180793917695
aF-0.0017275947034996436
aF-3.8383715329489465e-15
aF-2.970465574597048e-13
aF4.234563503512426e-06
aF8.922711733151429e-19
aF-4.297657313117404e-23
aF-3.633165666609405e-15
aF1.9255764116560617e-27
aF0.0
aF-4.844458562300001e-07
aF0.0
aF-1.8138549490625092e-06
aF0.00047224425442859947
aF-0.001847264014189943
aF-1.308527129883819e-06
aF1.1442973210006083e-05
aF-8.309013698126822e-26
aF-1.1374561764071883e-08
aF-1.187806409031602e-26
aF-1.756351832800981e-17
aF-3.565621115451618e-17
aF-7.9639080597960915e-19
aF-4.112643563501483e-06
aF-5.093487395831958e-13
aF-6.226120043239403e-15
aF-2.7741862002516135e-14
aF-4.3038049675811944e-08
aF0.0
aF-0.0011088403193674143
aF-9.287044138211311e-07
aF-3.795508909048901e-24
aF-1.3506104525319737e-11
aF-8.877314667957692e-13
aF-6.113764578274584e-15
aF-5.515964711174602e-28
aF4.6262744803167015e-07
aF-5.509463974415093e-18
aF-7.961503288979784e-20
aF-1.6807909588658472e-05
aF-0.0047960549361109935
aF-8.037966596006227e-13
aF9.855929508980755e-16
aF3.48877412073532e-11
aF-6.2558557159902e-07
aF4.949426826948863e-16
aF-0.005356395332845063
aF-0.0001413979473902401
aF-0.00028242995050185203
aF0.0003196773325148853
aF-4.987818188143624e-08
aF-3.633165666609405e-15
aF-9.287044138204888e-07
aF-6.41273082824611e-19
aF-5.726972355552526e-17
aF-1.0839667540118472e-16
aF-5.100568793196081e-18
aF-2.6981793263070533e-06
aF-6.918905110735485e-15
aF-1.0282886624322164e-17
aF4.308771331846774e-13
aF-1.8049002129153993e-09
aF-6.381142081648748e-22
aF0.00010485669291279995
aF-1.2175858265242928e-08
aF0.001967378361553087
aF-0.00032889353074749714
aF-6.283731616543692e-16
aF-8.518589640416737e-07
aF-1.6542256608558812e-14
aF-2.4734432562868215e-09
aF0.0
aF-0.00017634320449583672
aF-7.973513302386866e-21
aF-0.0007128859989351467
aF-1.931807383235325e-12
aF-2.1584745663397696e-12
aF0.0
aF-2.0511247738665335e-16
aF3.957789406106938e-07
aF-0.0042258480713384
aF-2.209739148253973e-10
aF2.364361148947512e-18
aF-1.0632309520799626e-16
aF-6.127764412450803e-12
aF-0.001101570193049888
aF-4.880028812249739e-24
aF-3.1959127629445763e-09
aF-3.681020063768279e-13
aF-5.898931454345554e-18
aF-1.0456806909786301e-21
aF-2.8148888568905498e-25
aF0.0
aF-4.946242369427781e-05
aF-0.00025945273245437663
aF0.0
aF-0.0017635364738560937
aF-1.5091471333424225e-05
aF-0.00032889353074749714
aF-9.287044138204888e-07
aF-4.247847586142714e-22
aF9.041000527109524e-05
aF0.0
aF0.0
aF0.0034226901705432943
aF-5.232921607823005e-10
aF4.0285978327535355e-19
aF9.375654780392857e-28
aF-1.3611995983800872e-10
aF-2.510112690675719e-13
aF-0.0023111803642538397
aF0.0015498883468250083
aF-8.72220238786709e-21
aF-4.598275815215255e-09
aF-0.008038324169063641
aF-9.287044138204888e-07
aF-6.724881604784894e-07
aF-8.243253850629982e-06
aF-3.748877813571743e-12
aF-6.101670475646138e-14
aF2.1497353968195975e-08
aF-7.178744643976217e-05
aF-0.00013783624087638303
aF-0.002265986359429771
aF-8.348389941979134e-17
aF-8.527550505111686e-25
aF-0.002791191488190155
aF0.00010485669291279995
aF-1.9323184103628394e-12
aF-1.2578542428398026e-15
aF-1.4113738802956441e-27
aF-7.089770675573298e-18
aF-1.554507635374422e-28
aF-0.0007316706045489311
aF1.551546649027771e-05
aF7.301069381679448e-07
aF-2.398181562084868e-28
aF-0.0023111803642538596
aF-8.907914865072764e-05
aF0.000801927969429254
aF-9.578920937183571e-17
aF0.0
aF-1.4012334948538906e-11
aF-0.00010643001319808834
aF-2.4561264795208713e-09
aF-0.0005074484635903737
aF-2.939440994679362e-16
aF-1.7260486449826356e-10
aF-1.7224627124958324e-08
aF-7.596379551409242e-05
aF-7.994916728410177e-20
aF0.0
aF4.108071697296145e-19
aF-1.73533579983729e-12
aF-6.113764578274584e-15
aF-0.0002842462124174515
aF-0.00013165337152799727
aF-0.00032585477672522113
aF-0.0015829367360359595
aF-8.832841856349833e-26
aF-9.287044138211311e-07
aF-1.4831574673769794e-15
aF-0.0006529321972355324
aF-0.00032569417368522594
aF-0.00011747195435587334
aF-8.082297159941885e-17
aF7.54128248473975e-15
aF-1.1932206366838039e-05
aF-5.263717347284905e-05
aF-0.004479429853927009
aF-0.0033564802008990923
aF-2.0511247738665335e-16
aF0.0015817010537754793
aF-1.013862029521944e-08
aF-0.015734970317856787
aF-0.0006228560395519554
aF-1.352125861793942e-21
aF-0.000500658710296886
aF-0.0005144696629120704
aF-0.0009166549249133878
aF-0.01654564924446239
aF-0.006335635035880867
aF1.3008416464785024e-06
aF-0.0005006582457846028
aF-0.004114547800912073
aF4.838973557405342e-13
aF-0.0011474303598359656
aF-0.00153447554061622
aF5.997605723305413e-05
aF-0.0005628723775271243
aF2.4908922994871104e-15
aF-4.3620452810761193e-13
aF-0.003026061281091202
aF-6.632185074261016e-20
aF1.3737999632738266e-20
aF-0.00013723511728076364
aF0.0
aF-4.5693713232094815e-15
aF-1.6389372806271624e-09
aF0.0002118367334076552
aF-2.744976371292689e-09
aF-7.418448157101575e-07
aF0.0
aF-0.0015829376728723741
aF-0.0010563381825995188
aF0.0008018279420548137
aF-9.979858153739732e-06
aF-0.0003855640012953806
aF2.490790076123956e-15
aF-0.0028873572368682807
aF-8.450606703436048e-22
aF-9.968169599335046e-06
aF-8.561780682188968e-26
aF-1.9868580669908164e-15
aF-0.003026061281091202
aF4.085183573997846e-07
aF-0.0009297126751109914
aF0.002224557663611802
aF-0.0001268305269845157
aF-1.3450207629399903e-28
aF-4.3856660822456886e-10
aF-1.73533579983729e-12
aF-0.0027824167809293054
aF-3.116695122107855e-10
aF-3.0689850998509043e-09
aF0.001430397704950434
aF-2.754659807001515e-09
aF0.00123561442591895
aF-0.0007012251511301736
aF-0.00573366047479322
aF-3.1075623346888873e-06
aF-0.0005414661229244823
aF-3.427591447196871e-11
aF-3.518709648369996e-17
aF-8.850914594960153e-14
aF-2.358261904425245e-08
aF0.0
aF-4.176151877372591e-17
aF0.0005836094072950392
aF0.0010749693494315198
aF-6.44190336882809e-07
aF-1.7563518327875368e-17
aF0.0004743313152396085
aF-0.004528450828277445
aF-1.1861284979656668e-20
aF-0.0020453146682141415
aF-3.955786481041546e-27
aF-1.4393507351663528e-28
aF0.0
aF-3.52576902457003e-05
aF-7.130944127611038e-06
aF-1.6542531801847474e-12
aF-1.2236849502089293e-10
aF-1.810131087636753e-05
aF-0.007244684779707858
aF-0.00019014133406300226
aF-1.2503403760359346e-10
aF-3.064592952008527e-27
aF-4.907664278243422e-15
aF0.00035340624206092584
aF5.2488406843249e-07
aF-1.5106931626584977e-15
aF-0.0014820910695037691
aF-2.4059647395308073e-09
aF-3.087652705042162e-05
aF1.1139358429335623e-20
aF-4.499331588707282e-15
aF-6.506146215196888e-11
aF-0.0002525883872886751
aF-7.561850547741263e-05
aF-6.67603338120221e-19
aF-1.5036375820056767e-28
aF1.191082317673261e-11
aF-9.287044138204888e-07
aF-2.5371893746221425e-09
aF-1.2348988402670161e-20
aF-0.0015811524285101045
aF-0.0015811524285101045
aF-2.548850409477538e-07
aF-1.2427230186555367e-23
aF4.0285978327535355e-19
aF-1.4126298851110224e-18
aF-1.3506104525319737e-11
aF0.0
aF-1.187806409031602e-26
aF-1.5036375820056767e-28
aF-0.0009282278350450447
aF0.00010485669291279995
aF-1.9014971015571972e-08
aF-1.3111914968568335e-19
aF-2.933361544700136e-11
aF-1.2866238343252394e-15
aF-2.8808562259709955e-06
aF-3.4877943599734703e-22
aF-4.880205183420607e-27
aF-4.656617396460606e-28
aF1.4613282394839708e-07
aF-0.001462582147078697
aF-6.278372455774848e-15
aF-1.861277025368918e-08
aF0.0
aF3.3264586488874904e-06
aF-1.308527129883819e-06
aF-1.8756866231295754e-08
aF-1.3943155051007863e-09
aF-5.1605049937145496e-15
aF-8.342170476691087e-13
aF6.745854274841002e-11
aF-1.6964247299928383e-07
aF-1.6504694316662304e-07
aF-1.1246030868625282e-23
aF2.608459584226856e-06
aF-0.0001580880071654114
aF-8.553413766371809e-16
aF-1.4219583633198038e-11
aF0.0
aF0.0
aF0.0
aF0.0
aF-3.7656575717925845e-21
aF4.838973557368987e-13
aF0.003243241342244254
aF-9.287044138204888e-07
aF-1.2938168939687666e-28
aF-2.4780298988236953e-05
aF-6.359411940351348e-16
aF-3.60501530238933e-11
aF0.0
aF-1.3225928376198907e-05
aF-5.257385565833846e-28
aF-1.2068223995977988e-10
aF-1.73533579983729e-12
aF7.188662502889156e-08
aF3.161233886423805e-11
aF-1.462798439533038e-13
aF-1.960779002043861e-14
aF-0.004296993429848016
aF0.0
aF-0.0005475268815205445
aF-3.605015302453239e-11
aF0.0
aF3.50861159984896e-17
aF-1.0676353121961395e-09
aF-4.7355837637703764e-08
aF-3.3053165853003636e-10
aF-5.9654243614517e-28
aF-4.773936521800399e-28
aF-0.0009714146536578637
aF0.0
aF-1.187806409031602e-26
aF0.0
aF-0.0017275947034996436
aF0.00012163112085669293
aF1.963617560463365e-26
aF0.0
aF-8.493685201179016e-18
aF-1.73533579983729e-12
aF0.0
aF0.0039466491886493895
aF-9.905469988198597e-12
aF-0.007699782572609367
aF-3.0689850998509043e-09
aF0.0
aF-7.217425314143761e-15
aF-4.2313876650247374e-13
aF-1.7353357998373782e-12
aF1.1139358429335623e-20
aF-6.10167047564608e-14
aF0.00034081413081616323
aF-4.2979281289339186e-23
aF-0.00012707932438479048
aF-0.0023111831344947834
aF-1.438838548321327e-05
aF9.12176126500487e-23
aF-3.6917105518511056e-15
aF-3.573233197076756e-13
aF-8.267102339134074e-23
aF-4.695101482052725e-06
aF-2.4780298988236953e-05
aF-1.2952060419533852e-26
aF-6.456415424955711e-11
aF0.0017049278772144148
aF6.075436466746563e-05
aF0.0
aF-1.8141826815639964e-07
aF-1.187806409031602e-26
aF1.824028269717991e-15
aF-1.4628601273830756e-18
aF1.284305686683245e-12
aF-0.0013374107234880622
aF-7.175117562572101e-25
aF-7.5929486382246e-05
aF-8.766207679695927e-26
aF-2.8835274231377642e-08
aF0.0
aF-4.88149396375085e-05
aF1.031490631886321e-06
aF-5.806991946437356e-20
aF0.0
aF-6.923398627759542e-19
aF-1.0601115777241693e-10
aF0.0
aF-4.880205183420607e-27
aF-5.872024357930199e-08
aF-7.586445889855313e-21
aF-0.0038464890104964937
aF-2.574166277130706e-24
aF2.1392935137876212e-28
aF4.838973557405342e-13
aF2.0014317758023827e-07
aF-2.659678967569629e-16
aF-3.079530988539295e-13
aF-7.93042596066925e-25
aF-1.2179026373284038e-11
aF-4.3137834284918267e-19
aF0.0
aF0.0
aF-3.055423630448563e-05
aF-6.245708444506116e-11
aF-0.0016133093317310914
aF-7.579305672256176e-09
aF-0.0001726587128140146
aF-0.0013111641366355085
aF-4.2313876650247374e-13
aF-0.007699782572610001
aF-2.388330045804079e-10
aF0.008093906923206731
aF-3.206087236837011e-14
aF0.0
aF-7.217425314144337e-15
aF-4.880205183420607e-27
aF-1.73533579983729e-12
aF-0.00047531352722766105
aF-6.549373797593557e-09
aF-0.00029231868672119083
aF-6.440862929361863e-15
aF0.0
aF-1.7223439838280558e-08
aF-1.2179026373284038e-11
aF-1.187806409031602e-26
aF-0.00012682549393025377
aF-1.6238119909669527e-20
aF-6.708578632516257e-07
aF-1.0377808586250761e-09
aF-2.6603243147973317e-22
aF0.0
aF-3.504657670338936e-08
aF9.098604439755174e-05
aF-7.684388775136637e-08
aF0.0
aF-1.0474553592709784e-06
aF0.0008356204436077639
aF0.0
aF0.0
aF-1.0402214767519539e-09
aF-1.3888955736775257e-18
aF-3.392990108719899e-22
aF-1.2718474050748618e-07
aF-5.287979857894179e-15
aF0.006138225064335918
aF4.108068705277471e-19
aF0.011308161792300231
aF-0.002245218506532791
aF-0.0029765888063472685
aF0.0
aF0.00026078113672975737
aF0.006581086692334383
aF0.011673639586986364
aF-0.0009374569368057276
aF0.00021246190856479035
aF-3.5022697919720873e-07
aF0.016121102996924767
aF0.0
aF-0.0019511568842268605
aF-2.9442778449910114e-05
aF1.0702772106027157e-22
aF0.015169059819438823
aF0.062195822134109416
aF0.021791105099892225
aF-0.0001484921277584363
aF-0.0003898199340518254
aF-4.776240256859653e-07
aF0.003673327769420411
aF-3.073450062169177e-10
aF-0.002726122114179733
aF-0.002595672575039887
aF-6.624627594701352e-10
aF-0.0015811524285100093
aF-2.1514926426901083e-07
aF0.003724996412561422
aF-1.536571585771703e-20
aF0.0
aF0.0212423984047419
aF-0.0011877125223895846
aF0.0015738463003073606
aF-7.519983986192211e-05
aF0.002318538968824763
aF0.004187822860869964
aF0.0
aF-1.8912392520975582e-06
aF-1.488648931500048e-05
aF0.0
aF-1.8714503680643574e-19
aF-7.49945788547439e-09
aF-3.8890416161291945e-07
aF-0.0028063342858119004
aF1.4063779243213075e-05
aF-1.0002737435722977e-07
aF0.005656594143069292
aF2.364361148947512e-18
aF0.002908428410740405
aF0.00030986878930451
aF0.0001223019223936194
aF0.05317262616582146
aF2.011419398558636e-24
aF0.0005215411415499134
aF0.01349848520079153
aF-8.446913070678911e-05
aF0.0017818933563397016
aF2.5477492612846313e-20
aF-0.0008062476908930332
aF-0.0005917631613235316
aF-8.56396970469599e-05
aF-2.588037343006974e-06
aF0.0
aF1.0215959248409176e-20
aF-0.00012750375352907662
aF0.02284572302222794
aF-2.205784157374582e-05
aF0.0023705351847731694
aF-5.519998235532167e-18
aF-0.00012774935395217746
aF0.0009943608117405918
aF0.0006423944275190379
aF-0.0007055566849593327
aF1.0619027472080469e-05
aF2.5041221019470656e-20
aF1.2091922214348353e-07
aF0.010488067703476269
aF-6.247804764329353e-06
aF0.015472892236434012
aF-0.0030417927081666284
aF-0.0007973272494574631
aF-2.9330282638511214e-16
aF0.00522065127540672
aF0.004236732154178876
aF-4.4996242125390546e-05
aF1.5515466488596452e-05
aF-1.8544215873644548e-08
aF0.006730988442987896
aF1.3286377798907231e-06
aF7.969388151689569e-05
aF-2.9628664989725165e-23
aF4.534906012219766e-18
aF-0.0007139376733229309
aF0.007647552669203409
aF-2.3776920391680008e-27
aF0.001810659393673071
aF0.0038762575478537994
aF-2.2561672440224057e-20
aF-0.00010260922956515243
aF-2.771162077161358e-11
aF0.0021512158211186364
aF0.0002483248278506887
aF1.6732242137453078e-05
aF-3.854402732088963e-24
aF-0.0004275286810648617
aF1.8762187055113875e-05
aF0.0032504084561851836
aF-6.632185074261016e-20
aF-8.347957093784757e-17
aF0.0
aF0.0005836094068974046
aF8.886941302989176e-16
aF-2.3864412733725995e-05
aF0.0
aF-9.191624493041559e-11
aF-6.868211621969177e-05
aF0.004751583868230871
aF0.010917637774421252
aF-9.545765093677165e-06
aF-0.000297716561855854
aF-7.922593847119125e-27
aF0.0018328574390026238
aF-7.525171175899483e-10
aF0.0013462155082060335
aF-0.0062531604505183126
aF-6.549371549145638e-09
aF3.778343583156433e-12
aF0.0
aF-9.652771660898593e-27
aF-3.13009962275637e-23
aF9.067023810462097e-13
aF0.003775367297783234
aF-6.854812872727519e-05
aF2.4981582372710856e-10
aF-2.398181562084868e-28
aF-0.000250494644291453
aF0.011561720502985918
aF-3.119154118199488e-05
aF-0.0006687053617460642
aF5.557122156930534e-06
aF-2.040008685949995e-22
aF2.435906516175572e-16
aF-3.186449937713863e-08
aF-0.0005302697996455999
aF-4.243106524531108e-12
aF-2.2368668649171534e-20
aF-0.0016644958314396925
aF0.0005804019204976404
aF0.0029301167987951906
aF0.00012732260471577555
aF1.5559311354541705e-16
aF-1.2543019103063076e-07
aF-2.422884568869323e-05
aF-6.955064457254103e-28
aF0.009858364630441064
aF-5.390814614472683e-12
aF-1.648451724792642e-17
aF0.0
aF-0.00019724134694585276
aF-1.8651349450530713e-13
aF0.005254941591547008
aF-0.0003411724513792043
aF0.014879227290835876
aF-1.7447161514513928e-23
aF-0.0005304848749331206
aF1.491502610924741e-09
aF0.029080820136868697
aF-0.0004917683575796553
aF0.0008365999672809752
aF-1.6677661765783601e-18
aF-0.0017695597769227943
aF0.007267527296251548
aF-3.6741895804885845e-09
aF-6.689782669470342e-14
aF0.012171917455442733
aF-8.584072723351984e-22
aF-1.4388385483190773e-05
aF-1.2866238343252394e-15
aF0.010877750832378158
aF-5.075784400933517e-22
aF-5.585172596307005e-09
aF-6.910972390002441e-16
aF-3.190571040824374e-22
aF-1.3009942549603395e-22
aF-1.1295440062960433e-27
aF0.004428006086080056
aF7.490764526488373e-14
aF8.116502988304597e-19
aF-0.00015768481923066673
aF-6.245708444506116e-11
aF0.019755820603782927
aF-8.838534818572381e-06
aF0.0009476170684376358
aF0.017111513428792646
aF-8.659763384187601e-19
aF-1.5435906019279534e-06
aF-0.0006129427247741026
aF0.005817070005176193
aF0.00029954722969645245
aF-1.3026181486984529e-16
aF-0.0056769440791937745
aF1.551546649027771e-05
aF-2.2858906925180497e-05
aF0.0
aF-4.620475140447094e-11
aF-0.0007988250271922203
aF1.2026272998061968e-08
aF0.003648822429360631
aF-0.00014267029464399398
aF-0.0027080157054195884
aF-0.0001087440687940247
aF-1.2039016256946611e-24
aF-8.553252967641938e-05
aF0.0002483248278506887
aF0.0
aF0.0018260393525935936
aF-3.255712351285219e-06
aF-1.9134532045426884e-14
aF-0.0005952290155485418
aF9.740592279849642e-10
aF0.04558818528057426
aF8.116502988304597e-19
aF-1.2882346908513765e-15
aF0.0013664963824450151
aF-1.1492557309121549e-14
aF0.0007364050329542267
aF0.005066746933668116
aF0.009663851305304422
aF0.0031996342367187837
aF-3.241892935778073e-08
aF6.84994694579033e-13
aF0.0003254958975951399
aF-0.0003265587651472211
aF0.00962946886505835
aF0.00021859641942796251
aF0.0022705172814708532
aF0.001629790980944118
aF-4.958646075368492e-10
aF-1.3026181486984529e-16
aF-0.0003265587651472211
aF-3.603502302295934e-06
aF-0.002172003236332773
aF0.006974799510185739
aF-1.2866238343252394e-15
aF2.7669360066233446e-27
aF1.2536278698876074e-15
aF-2.2561672440224057e-20
aF-0.0014355783892939051
aF0.0
aF-9.975904460881671e-17
aF-2.8498895409004323e-10
aF0.0
aF-1.5951186823401004e-22
aF-2.0287956964079112e-13
aF0.0
aF-3.281682956090045e-05
aF0.006110635591836901
aF0.004267838914256369
aF-3.4316442677061004e-13
aF-5.254233500930829e-28
aF-6.238606062193092e-05
aF-0.00013165337131159282
aF-2.8366614965617094e-05
aF2.730502314995075e-23
aF-8.167677505821796e-06
aF-0.006599042534665777
aF-0.0006555821708119164
aF-0.0010972768962302416
aF6.510591089518647e-06
aF5.370546320640811e-15
aF-1.3904641621332877e-09
aF0.0014730922279107947
aF0.010789481617105042
aF-3.1359720001286295e-07
aF-0.0008889436567393112
aF1.2026272998061968e-08
aF-0.003448780170136195
aF-0.000432568065882749
aF0.0
aF-0.000609672519835337
aF-7.140216333837891e-27
aF1.3737999632738266e-20
aF0.003133194220571396
aF-0.005195519376386243
aF-8.39956377072599e-20
aF0.0
aF0.024161590098109878
aF-0.0019072476033582134
aF-0.00032406377248336995
aF-5.349160604949989e-23
aF-4.931837118727174e-10
aF-0.0018837970058218551
aF5.217852804595021e-09
aF-2.687743601896554e-11
aF-1.1295440062960433e-27
aF0.0007019989957189587
aF-2.2156385189080403e-05
aF0.018785170951536034
aF0.01176200935005318
aF0.003277977323275275
aF-5.946612745472957e-13
aF0.0
aF4.0863725466347434e-26
aF0.0017096684516246063
aF-0.0011555901966308147
aF-6.548779430703187e-06
aF0.0
aF-0.004011572154563437
aF-0.0005094645479424301
aF-6.526605690574285e-28
aF4.873314196350911e-05
aF-3.771222532508641e-06
aF-3.5944788697677594e-08
aF0.005009832533923179
aF-1.4105720981059968e-09
aF0.0044742254591475196
aF-8.508760355215848e-22
aF-0.0007777212750456625
aF-0.0005439959906853352
aF8.445175377801582e-07
aF-1.192264708102995e-17
aF0.003311205512077331
aF-7.857907046623906e-17
aF0.008440159113818173
aF-8.24932296459023e-13
aF-0.0029594896430132998
aF0.0001006479386018043
aF0.00696175875427224
aF0.0030844868693142204
aF0.0005836094070302143
aF-3.693115609900894e-06
aF-1.213025394064263e-19
aF-5.118342376902394e-07
aF-1.2229501000577092e-07
aF0.0006174089061140649
aF0.0
aF0.0002278319288024152
aF-0.0029134934321822757
aF4.486795214427541e-05
aF-1.5099669083104936e-05
aF4.625228722053484e-24
aF-4.193259650763442e-25
aF-2.0774558982372628e-05
aF4.534906012219766e-18
aF-1.947677799853205e-13
aF-0.0015448140883386726
aF0.00023047469790771403
aF0.021982822678884482
aF-2.2561672440224057e-20
aF0.0011357616335149522
aF1.3468454495738112e-19
aF-0.00024699812078373594
aF-1.6178727380240065e-05
aF-1.0622706285599024e-10
aF0.030619444367445087
aF-1.6215507069144864e-07
aF-7.952696903238027e-13
aF3.294474255428774e-14
aF0.01853900325234327
aF-0.00015392520169419004
aF-0.00043842636852196577
aF0.030567373870671623
aF-0.0015510669790539627
aF-3.3122010620714827e-10
aF-0.0013574462998695257
aF5.370546320748304e-15
aF0.02924493254009339
aF5.559213966698768e-11
aF-0.0009465374839218826
aF0.0
aF0.00010425003147859718
aF0.015127375681769507
aF-1.5065782720072728e-14
aF2.0150265346084137e-16
aF-0.0004144703337548661
aF-5.413841632413331e-11
aF0.05688006381917107
aF0.0
aF0.0016210820829090239
aF-0.0007623939836958609
aF-0.0007404617089914252
aF-1.2039016256946611e-24
aF-1.4777276882180909e-05
aF-0.0017749608141960484
aF0.005959145917672372
aF0.0009079730244042135
aF-3.0922658684131977e-10
aF-0.002711130555431665
aF-3.5835155607275745e-20
aF0.016870039591156502
aF-1.6209464689832753e-08
aF0.0017259755176377183
aF-0.0017867997665945471
aF-2.813733196375108e-15
aF-0.0016535825579225044
aF-3.2062618813897917e-10
aF-8.47773063571467e-05
aF0.0043349794127997875
aF-0.0037393755942282596
aF-4.76211432333244e-11
aF0.03982350323656545
aF0.013769491691478553
aF-4.109924189160358e-08
aF-1.7039282451894343e-16
aF0.0
aF-7.95269690324133e-13
aF4.625228722053484e-24
aF-0.0006013565274224684
aF-1.5954045171965828e-05
aF0.0
aF-1.2506985936134675e-08
aF-0.00044670782276296287
aF7.914537674382291e-08
aF-5.807014537713714e-05
aF-5.254233500930829e-28
aF2.21008295636763e-08
aF-1.350610453795245e-11
aF9.398263295302462e-05
aF-1.1700191561134749e-07
aF1.6288014664474187e-06
aF0.0
aF0.0014479644403011748
aF-0.00012774935395217746
aF0.025427270899940284
aF0.001241731098575683
aF-0.005679072471402078
aF-6.830937405110111e-07
aF-7.067513084182338e-07
aF-1.462798439533038e-13
aF7.715078651855205e-26
aF-0.0003793867706312663
aF-3.119425916947482e-05
aF0.00031975278867963085
aF0.00017351654114244595
aF1.6288030898083499e-06
aF-2.4906020661315747e-06
aF0.003368754855828245
aF-0.001301083947993535
aF-3.8983032140477285e-21
aF-0.0006294474275487946
aF0.015070288032599341
aF0.00014435869327683194
aF0.04202317519665053
aF-2.577231002933274e-21
aF-1.3141157585086603e-24
aF0.0008185917872043588
aF-7.070486387202126e-29
aF-3.3342525659869365e-08
aF-0.00010936230851349104
aF-3.0444222896560847e-05
aF-0.0005276829860373797
aF-1.2476507622190657e-07
aF-0.0009768005524182968
aF-7.943436266965953e-24
aF-1.6016176718239928e-16
aF-0.00023313517381526333
aF0.004016684727698637
aF-2.0349289290010488e-11
aF0.0001147647509938663
aF2.1807277400794955e-20
aF0.041650806735550175
aF-1.0134109097797925e-10
aF-0.002984387262728242
aF0.012851223480839731
aF-1.1808212819168733e-10
aF2.3822482330743494e-05
aF1.900551777318534e-14
aF5.446403217958685e-11
aF0.005438795690837879
aF-9.983866426693496e-17
aF3.298888230200917e-16
aF-0.005679072471411108
aF-0.0028447417218440962
aF0.0
aF-1.3542004101230317e-07
aF-0.00012236490004564231
aF0.0584095549122728
aF0.04962341824363589
aF0.0001826292543038336
aF0.01052489088472622
aF-1.1932206366838066e-05
aF0.0004859027739376026
aF0.0456518465091166
aF-0.0004713427976789038
aF-2.730027220127595e-15
aF-1.5921973711778862e-08
aF7.301061428982534e-07
aF-0.0030223804322690477
aF-9.003119402406079e-17
aF0.0031553586855771736
aF2.4908922994871104e-15
aF-1.715232656848763e-07
aF-0.0002906787384023642
aF4.1673867350972056e-05
aF-6.245708444506116e-11
aF-1.7653012421771288e-16
aF-0.0014904877124981427
aF-1.1295440062960433e-27
aF-3.964705114559953e-08
aF-4.122703100829973e-17
aF2.435906516175572e-16
aF-7.947165622669505e-05
aF-4.907071460228865e-19
aF-0.005054275931325772
aF-0.0004693251781789341
aF0.0
aF5.370546320748304e-15
aF-0.0028411545375859534
aF0.07480134790149871
aF0.012702628430033168
aF0.0
aF0.026492202180222215
aF-8.145026436703699e-10
aF4.616067646913681e-27
aF0.0024596616701602937
aF-8.584072723351984e-22
aF0.010449469044017766
aF0.029618932523451685
aF2.114440654572608e-15
aF7.914537534430413e-08
aF-0.0007905769186380219
aF-5.419812381521962e-05
aF2.435906516175572e-16
aF-8.31009329894309e-12
aF-3.634613463627602e-24
aF-0.0005439959906853352
aF0.0005331583586704251
aF0.010025195670419072
aF0.002910300772548645
aF0.0012909302979183263
aF0.00018684019250249582
aF0.0
aF-0.0006796953350662412
aF0.008502929317172376
aF0.0052783394492651806
aF0.0008490800078602787
aF0.00023681766884068645
aF-1.6267606388986447e-05
aF-7.159415603312009e-05
aF-0.000395749844522291
aF-2.7568358496025326e-06
aF0.0
aF-1.9426758470234415e-08
aF-1.0784071534944649e-10
aF-0.00027199799540012626
aF0.00010485669211753006
aF0.012826889579374444
aF-0.0011708160256635681
aF-9.747230654231508e-25
aF-0.0005485643238451542
aF-0.0006441340335199889
aF0.0
aF-1.5534044514084107e-14
aF0.00848794315486103
aF-0.001356975026893305
aF-1.3611995983800872e-10
aF-0.006316878507007393
aF-1.500687564922527e-13
aF0.0001273929728000475
aF-0.002303923315255438
aF-0.0005022112304522507
aF0.0
aF-0.0006377490682913186
aF0.00058360940729494
aF-7.51989625612622e-05
aF4.108071697296145e-19
aF-2.370981080400641e-23
aF-4.632648081631141e-05
aF1.630067397470357e-08
aF-0.0005067183836285385
aF0.0010547155716022424
aF-0.0012639282215425672
aF-3.528562927326144e-15
aF-4.2086274112081296e-05
aF0.0013777392136832079
aF0.021459707005479386
aF0.002944031809784304
aF-3.865063813271632e-06
aF-2.3990864024810884e-14
aF-8.56370637570254e-05
aF-3.3160951464302353e-20
aF-1.2457183195647996e-13
aF0.0
aF-8.013942955242331e-13
aF-9.857109792775462e-14
aF0.0
aF-7.51989625612622e-05
aF0.0002775601830675772
aF-2.6225139662382814e-10
aF-4.877764674172319e-16
aF0.0
aF0.05427367013708707
aF0.0
aF8.64429582800445e-07
aF-8.584072723351984e-22
aF-3.4308848128635435e-05
aF-9.572970973025977e-07
aF-1.1295440062960433e-27
aF-9.149343400129252e-07
aF-1.255056300203705e-13
aF-2.2336357479986846e-05
aF-7.952696903238027e-13
aF-5.985561467465287e-20
aF-3.13009962275637e-23
aF-5.761642869440321e-25
aF-7.394907697459042e-18
aF-4.922184287883693e-15
aF0.0
aF-8.347957093784757e-17
aF-0.0002454106907579568
aF-0.00014062183702846085
aF0.001454376694247089
aF7.910224413287276e-08
aF-0.00040701847741205584
aF1.3737997243232777e-20
aF-4.237405332786551e-05
aF0.00024832483674603326
aF-0.0001802026800221595
aF-0.003379419213689082
aF-4.899790243025657e-06
aF0.0049056374821115694
aF-1.9070824466344693e-22
aF-6.242549834502381e-08
aF-0.0013316565739893123
aF0.005465610891839922
aF0.002732869438746851
aF-0.006853496370558881
aF2.7083681828795397e-05
aF-2.6772682529100236e-06
aF-0.0001270485570866006
aF5.252994898085157e-20
aF1.551546649027771e-05
aF-3.5506327325072074e-26
aF0.004507949124274889
aF0.003048847468844363
aF-3.5316941200292106e-06
aF-1.4179103045832914e-13
aF0.00333156188185949
aF-0.00014692050129817797
aF-0.000812578511912431
aF-6.632185074261016e-20
aF-0.0008140798496764778
aF-1.9299305699209317e-06
aF-1.3692756523935634e-14
aF0.005629728007827041
aF0.0030811435361206485
aF-0.003766595906889478
aF-6.991489821375713e-21
aF-5.415267728055365e-18
aF0.01330309020361039
aF-0.0007572862214596379
aF-5.812967464194991e-13
aF0.0035735852525913317
aF-1.4967738432391113e-13
aF0.005550246199238737
aF0.03236934042171784
aF-0.00030127531049626107
aF0.0022338316313495823
aF-7.610536502473978e-18
aF0.004963414233284349
aF-0.0024927134608552504
aF0.001621759405526556
aF1.350936374157922e-07
aF2.3158056333882785e-16
aF-6.383455954876909e-10
aF0.0
aF-6.251500173817232e-15
aF4.0863725466347434e-26
aF-5.9563097695177984e-18
aF4.940041990872649e-09
aF0.011549422059298254
aF-0.0015355915299299745
aF-0.0024020541916010946
aF4.108071697296145e-19
aF-3.2877427796770765e-17
aF-3.4964639139641004e-07
aF0.00392686991470683
aF7.301061428982534e-07
aF-3.759948128063215e-05
aF4.902054608136815e-13
aF-1.6539165633830817e-05
aF-0.005761155232816628
aF2.0018236493661255e-27
aF-4.280335167261501e-06
aF-5.072489781651742e-15
aF-3.7809252444540895e-05
aF-9.287044141171206e-07
aF2.3602635584924944e-14
aF0.03448803423340186
aF0.0
aF9.354608493946876e-05
aF0.005083667308861693
aF3.8187456820091444e-06
aF-2.7207366355802955e-25
aF0.0001147647509938663
aF-0.0007705736369544448
aF-6.087928889030815e-09
aF0.024012535821140085
aF0.0
aF-0.0007208649822138871
aF0.010157712024590346
aF-0.0014014752157240954
aF-6.708573127505959e-07
aF0.05190252732873513
aF2.4908922994871104e-15
aF0.004738370347696779
aF0.000637685437162134
aF-8.267577970313598e-05
aF-0.00012959631442759217
aF0.00045982943313358974
aF0.008439950590849551
aF3.4883272943244345e-25
aF-2.053603990847869e-18
aF-2.100965868131287e-20
aF8.922711733151429e-19
aF0.04383562747391087
aF-1.447159917509467e-05
aF-0.003093183341914666
aF0.0
aF-0.0018422348151867145
aF-1.1097826205667178e-10
aF6.856549403980267e-10
aF0.0028899841956427164
aF0.004836860820514171
aF-0.0015287073320499724
aF-1.8260481755839384e-14
aF-8.468030818058386e-07
aF-4.189418598660188e-08
aF-0.0023391411670185235
aF-0.00035229330806738627
aF0.00433033725339791
aF1.3479815450289115e-07
aF-2.2564553156627746e-20
aF1.7701459416563124e-05
aF0.0
aF-7.927787980243159e-13
aF-1.3398043339292307e-14
aF0.01884230575269041
aF-0.00015987946387600662
aF1.2002001383555792e-06
aF0.0003255822343425729
aF0.010725977132214433
aF-2.5277210366590015e-05
aF-0.0012603623646646558
aF4.108071697296145e-19
aF-3.032068248795958e-14
aF-0.0004438287991037403
aF0.004460075491224085
aF0.08736151551692428
aF0.05889339494166919
aF-0.0006888281488464285
aF0.08624848590710892
aF0.011431678404397972
aF0.012811268711641068
aF0.002659099976533264
aF0.06512093673748075
aF0.00012455855012816374
aF0.000345647139609338
aF0.0036046440299497035
aF-0.000557072077267997
aF-5.4157716965871216e-08
aF-3.7494236015517405e-11
aF0.01878191955298728
aF0.08610241539972847
aF0.08964122672504819
aF0.04542035988970803
aF-0.00027844492918792173
aF-1.758802757191963e-22
aF-0.00028343992399401197
aF-1.5205962248805026e-14
aF-4.1528688630034784e-14
aF0.08380941589862798
aF0.01324064328394376
aF-1.769626029094644e-12
aF-6.818481670214035e-10
aF6.434160171440904e-11
aF0.0015275740124417662
aF-0.00043661677348881485
aF0.0009180445375519906
aF-0.00550027065121756
aF0.018781919625594636
aF1.336326303406584e-10
aF0.088465006355128
aF-0.0005671091713627267
aF6.434160171440904e-11
aF0.03820246804483024
aF0.00780199028134598
aF-0.0006080539719128425
aF0.007857057376182072
aF7.083169010330874e-05
aF0.08721826024270532
aF0.05187033032115107
aF0.08792085119680544
aF0.004779645143184916
aF-9.286083688932489e-10
aF0.01739236256567501
aF0.004284716934345912
aF-0.0016501586926949785
aF-1.874707680895586e-11
aF-0.0018971528880813852
aF-1.2174693347728609e-08
aF0.017601931451008572
aF0.029460053349257623
aF-0.0001277492896087072
aF0.002659099976533264
aF0.0871503150929809
aF-3.976733256479545e-19
aF-1.944867403039614e-05
aF-0.0006935556791216917
aF-0.00038681829984037614
aF-0.00023588114179391817
aF0.014456987758566546
aF-0.004177290245056134
aF-4.1415357864712485e-10
aF0.0031543763420264445
aF-0.0011153490437277639
aF-4.036637406543529e-24
aF0.0007571520342932932
aF0.0058881199988134155
aF0.002400493472897407
aF0.008253173095582982
aF0.08678677783853835
aF0.08736148480676746
aF0.0074236091204665814
aF0.004012872014127658
aF-6.818481670214035e-10
aF-0.000996611579051699
aF0.05049888205760257
aF0.06340718923484301
aF0.07746397568697092
aF-2.1391831994393203e-05
aF-0.00028343992399401197
aF0.0028087468179809464
aF-0.0034743125847267807
aF0.07462261590980171
aF1.0379897773370621e-10
aF0.007045887657076229
aF-5.5525442272278135e-05
aF0.023621328354856738
aF0.004102114698045466
aF0.07184588328774776
aF0.035434264558689685
aF0.0031359094908556574
aF-2.516397987473175e-19
aF-4.59450782767813e-10
aF0.006096362754382578
aF0.008650222871208013
aF0.08624848590710892
aF-0.001246490533720053
aF-0.00043661677348881485
aF0.03071058269360091
aF0.0051234551199202324
aF1.0379869772834079e-10
aF0.08862975199197126
aF0.002659099976533264
aF0.07358093607423923
aF-0.0018186586492442492
aF0.08746574767819958
aF0.0898120877502845
aF0.01795688674371658
aF0.02483432944450405
aF0.003176527103466039
aF-1.5228543038287747e-13
aF0.0001223088841571666
aF0.08412955834711537
aF-1.892295834134171e-05
aF-0.004339126148301357
aF0.03521636702399179
aF2.7366244677495135e-07
aF0.08941038700387009
aF0.0
aF-6.669558108945306e-10
aF0.011298986142047834
aF-0.0023232323531612443
aF0.08624848590710892
aF-0.0009650230391216681
aF0.03776839202606409
aF-0.0017822579030176003
aF0.08624848604937312
aF-0.0008457370100207091
aF-0.0010937007752066948
aF0.021933615939975205
aF-1.2897015949323604e-05
aF-0.0015780793531261189
aF-1.0802838021522271e-27
aF0.006963702940498915
aF0.018889592193756004
aF0.0040749045299777855
aF1.5254773488049967e-23
aF0.008253173095582982
aF0.00021356125670281
aF-0.0007310614848976015
aF6.434160171440904e-11
aF0.0024587091809447235
aF0.005246237913523872
aF0.002659099976533264
aF0.08600953387226869
aF0.008253173095582982
aF0.005990287405443469
aF-3.5022697919720873e-07
aF0.004674980007788852
aF0.00012760854383480372
aF-0.001341760313561234
aF-1.0796685295125987e-24
aF1.0379897773370621e-10
aF0.002659099976533769
aF0.08736148480676746
aF0.0
aF-6.388069269232278e-05
aF0.007253747063153355
aF0.0003977327415981797
aF0.07399100055666208
aF-0.0009484051049305335
aF0.08753136295259926
aF0.002400493493919511
aF6.546465687078705e-08
aF0.0034283059402903703
aF0.00017378156192927128
aF0.017601752545851855
aF0.08624848604937312
aF-0.0013124726637656406
aF0.012675479631014678
aF0.06291220031624534
aF0.08624848590710892
aF-0.0006080539719128425
aF-0.0026453572318678926
aF-0.0019165532709880069
aF0.00048264176035446734
aF-2.4561264795211856e-09
aF-1.4105739369161958e-09
aF0.00012230202458692215
aF-4.59450782767813e-10
aF0.08709060761854669
aF0.003614761338878601
aF0.009541933176289336
aF0.056225938713025746
aF-0.003418776767661528
aF-1.890220149455789e-15
aF0.03066571552014793
aF0.04004851748050062
aF0.07368658373614007
aF-0.0002792157142161015
aF3.6911785025041642e-06
aF-1.644517297421037e-13
aF-0.0003238693155317008
aF0.07368700560332833
aF-0.007084727218145053
aF0.0015275578029770856
aF0.0874537044672468
aF0.03841053559139202
aF0.04391198216768683
aF0.002792318906770039
aF-0.00865490700925083
aF0.012432326720498155
aF0.08544222076608878
aF0.08973889312996322
aF-2.1071083458478935e-16
aF4.858962033490955e-12
aF-9.760204463981853e-25
aF-0.0008587893207712715
aF0.007272820001438464
aF0.0023978645034149013
aF-0.0002359719285645231
aF0.009657069125769123
aF0.0
aF-0.0001132675152907841
aF-0.00012774928976286122
aF0.08645949430914274
aF-1.163304744208432e-08
aF-1.1287735893552655e-14
aF0.015561774268586417
aF-0.0004514098478807409
aF-1.1296770117491791e-08
aF0.017957702607542723
aF-1.5830622978798306e-09
aF-0.0005038178372530693
aF-0.0011003469349740928
aF-0.0009498399566090632
aF0.08638687630048573
aF-0.00919079320472542
aF0.026820471418546637
aF0.06832256237308039
aF0.0074423112695032574
aF0.0088196390715713
aF0.00026532189892457134
aF-0.008134331152255876
aF0.00018218767460334448
aF-0.007865882268808353
aF0.08542742371825963
aF0.002707780885179807
aF0.06031510742872666
aF0.05972565251818651
aF0.01878191947475193
aF0.0001933605952068636
aF-3.13009962275637e-23
aF-0.002920914153671916
aF-0.00010275619549095299
aF0.03797570817418254
aF0.041792425182176414
aF6.904955027196505e-13
aF0.0886297519919695
aF0.0036808392072126034
aF-4.668597715408817e-08
aF-0.0005570720772679964
aF-2.0447502476828421e-10
aF0.005246237913522939
aF0.00023061014656353482
aF-0.0012466096957664085
aF0.00703991453578306
aF0.08573417254549419
aF-0.0004240915079627307
aF0.003455991915844675
aF-0.00040518257666297174
aF0.0009555841985862594
aF-7.190665650687287e-05
aF-6.894146598759862e-05
aF0.0886297519919695
aF0.017323328573036215
aF1.8693135273312238e-15
aF-0.0008062442198436394
aF0.00011586748276222532
aF0.0006142055386410034
aF0.008056760271031888
aF0.003662432074547287
aF0.009721551635928735
aF0.010094616567295269
aF0.08608380706421792
aF-3.4436221687890504e-08
aF-1.3785456649091307e-05
aF0.0034440539930042395
aF0.017759209768907026
aF8.695250671851027e-05
aF0.0
aF-0.0011003469349002747
aF0.08624848593658829
aF1.5657116262621435e-07
aF-0.00028343992399401197
aF0.02508920712732361
aF-2.014807950878868e-16
aF-0.0007880966523689261
aF-0.0018149403693998214
aF-1.0634683451869835e-13
aF0.0028660478389590928
aF0.008819637379329691
aF0.05049888205760257
aF0.056922649488842195
aF-0.005679060500817186
aF0.07745877859451517
aF-0.00033805908104580216
aF0.0
aF0.007744315855310272
aF0.0010827067939383225
aF0.0036009626352146496
aF-0.0001277492896087072
aF0.08624848604937312
aF6.434160171440904e-11
aF-0.0007656065921531973
aF0.014498060087673374
aF0.0886297519919695
aF0.002400493493919511
aF0.03174498110314411
aF-4.186721783079364e-09
aF0.00881963737933654
aF0.020783943017229214
aF-0.0007059280682517208
aF0.010144509685799094
aF0.015309718609701352
aF-0.0011547540612493958
aF-0.0063337889632348885
aF0.018150520155110296
aF0.036985788209052656
aF-0.0010897427161320422
aF-0.004686964193961261
aF0.08430847253518457
aF-6.388069272729717e-05
aF-5.5525442272278135e-05
aF1.0379869772834079e-10
aF-6.381142081648748e-22
aF-0.0007411980576864331
aF0.0014998758053670742
aF0.038854446640999525
aF0.003439330929389524
aF0.008253173095582982
aF-0.0006080539719128425
aF-0.007407031393222753
aF0.0898252055541006
aF0.007838416964465373
aF6.565324463993182e-27
aF-7.140216333837891e-27
aF0.08556889809171742
aF-0.0005109894399376603
aF0.08715031950952234
aF0.04960230474902312
aF-4.035564975118997e-27
aF-2.4561264795208713e-09
aF-7.316608857014847e-05
aF0.0029097622726516788
aF-0.00013783624087643115
aF-1.2413774609787884e-05
aF3.619462670259566e-05
aF0.002400493472897407
aF0.01747475799539811
aF-0.0006154292470721137
aF-1.2174693350092966e-08
aF0.010932869645678533
aF0.06143893949889819
aF0.017173123951333073
aF-0.00378794133842501
aF1.0379869772834079e-10
aF0.0007925499261786653
aF-5.5525442272278135e-05
aF0.00472540074302723
aF0.08715031950952253
aF-1.5228543038287747e-13
aF1.0379897773370621e-10
aF0.007923850754847275
aF-0.0007962437912257812
aF0.0309594026140006
aF0.0014908414494944125
aF0.025269968417981122
aF0.012005779549943363
aF-0.00028787498968792306
aF1.0379869772968122e-10
aF0.018781919625594525
aF0.02485282042385819
aF1.0379897773370621e-10
aF0.08624848590710892
aF-0.0006388250304741294
aF0.07368700559918342
aF0.008819639071571317
aF-0.0001025219575146573
aF0.035144815473877565
aF0.007918547515506106
aF0.0182910174104331
aF0.018779939903509936
aF0.0031765241094640828
aF-0.0005900986865750635
aF0.002400493472897407
aF-0.0019515371682094658
aF0.016682400144788896
aF0.0005031230391252997
aF-5.5523978592747326e-05
aF0.0018031392580098908
aF0.0003484521649091182
aF0.008501632791666965
aF-7.024373198819088e-11
aF0.0
aF0.006723155266067605
aF0.019141201144064833
aF0.0007571259536784345
aF0.005246237913523872
aF4.987222113614846e-08
aF0.000757125852337344
aF0.000757152034291429
aF0.0
aF0.0
aF0.0
aF0.00749085563613559
aF-3.13009962275637e-23
aF0.004237034721856301
aF0.006745659092983292
aF0.005246237913523872
aF0.007490793893446593
aF0.0
aF-0.0011185796668342022
aF0.015108731693682076
aF0.005246287785744075
aF7.029720960943169e-07
aF-0.0008397313042313733
aF4.987222113614846e-08
aF1.0379852415737971e-10
aF6.43414281512922e-11
aF0.0
aF0.0
aF0.017601931529707897
aF-0.0016961162316772346
aF0.08755259177710753
aF-0.0007562052585494188
aF0.08624848604937312
aF-1.8642966626096633e-15
aF-0.001118637485451835
aF-7.323406176465299e-16
aF0.08365712700474007
aF0.0002483246855752012
aF0.008253173095582982
aF0.0019864724410893634
aF0.04275816833743898
aF6.43414281512922e-11
aF0.015607127044821105
aF-0.0011186012883812968
aF-2.6479960932652126e-05
aF8.185498903552849e-08
aF-0.000279215513768621
aF-1.664317106676064e-16
aF0.0
aF0.005246287785744075
aF0.08736151551692428
aF0.005246237862853324
aF-1.7794711928007342e-10
aF-0.0038104557881755694
aF0.005246237913522939
aF-1.163304744208432e-08
aF0.08736148480676746
aF0.0026921703827016137
aF0.0017668060773475482
aF0.009333534998762667
aF0.08715031950952234
aF0.00031916845661951145
aF0.01878191955298728
aF-1.6445133639720402e-13
aF0.002225832182739855
aF-0.0005763890856381418
aF-0.001802037399619216
aF-0.0018930769020536885
aF0.001593129599670892
aF0.0025260706822242004
aF-0.0005716049795139227
aF-0.000612781502188106
aF0.010388711011536485
aF0.01309700466991082
aF-4.981457307624331e-09
aF-9.877692275843678e-05
aF0.00031916845661951145
aF0.0025432950687147094
aF0.023974206373666596
aF0.008819637379329691
aF0.0010755545171642843
aF0.007490793868111316
aF0.00846522357498891
aF0.006026212632978197
aF-3.13009962275637e-23
aF0.07395723237168013
aF0.08664836064137396
aF0.0014115669670905265
aF0.0055587541673968715
aF-0.0007102850085768378
aF2.3686115155862788e-14
aF-0.0003238696433341812
aF-0.0007572750273751492
aF0.008579091736153243
aF0.0025028159127707113
aF0.00306783332055423
aF-3.5677704208191204e-08
aF-3.13009962275637e-23
aF-5.5525442272278135e-05
aF0.0007571259536784345
aF-5.3844988774371165e-08
aF-4.0545607986921865e-09
aF-6.38640814869077e-05
aF6.904955027196505e-13
aF0.0059042977792172855
aF-4.907071460228865e-19
aF0.08647182787028493
aF0.005676414846001702
aF0.0
aF-3.119303666973396e-05
aF0.0007571259536784345
aF-2.4407659523847355e-05
aF0.07723433904720386
aF-6.388069269232278e-05
aF0.060108406802902505
aF2.660611316908134e-26
aF-3.4498837119555877e-18
aF0.008534582053383
aF0.001326908014422844
aF-0.00012770471687426925
aF-0.0014590980006605983
aF-3.13009962275637e-23
aF-3.13009962275637e-23
aF0.0007571519329522025
aF-0.0008397313042313733
aF-0.0008397930722556485
aF0.0
aF8.185498903552849e-08
aF0.0
aF-0.001118637485451835
aF0.0
aF0.0
asVmu
p9
F1.0
sb.