ccopy_reg
_reconstructor
p0
(clrsgd
LogisticRegressionSGD
p1
c__builtin__
object
p2
Ntp3
Rp4
(dp5
Veta
p6
F10000.0
sVweight
p7
(lp8
F-9.256743941828963e-159
aF-3.142331601820314e-56
aF-0.3484491437270411
aF0.0
aF0.0
aF-966.6706865490502
aF-1.29537442116679e-31
aF-719.3494620418778
aF-1.8020267867304816e-136
aF0.0
aF-1.5983352577617898e-12
aF-1.2587846208255518e-59
aF-3.142331601820314e-56
aF-3.6461548502950166e-33
aF4.4989137945432014e-14
aF-3.8900181066051323e-59
aF-3.214923216947355e-141
aF-7.194287115965825e-237
aF1.3672543844397366e-76
aF0.0
aF-3.2451855365842683
aF-3.343133308089077e-267
aF-4.92765805007019e-216
aF0.0
aF-3.2457141582836593e-69
aF4.5877444269385e-77
aF-1.5991164633320817e-219
aF-7.404294730589836e-90
aF-7.124876859975231e-240
aF-2.3190091656147935e-127
aF1.1348735051032171e-164
aF3.233280139650043e-270
aF-6.338253001141148
aF6.18970019440952
aF0.0
aF-9.227880070808909e-206
aF0.0
aF-7.359284961222105e-253
aF2.0306842025300504e-53
aF0.0
aF-8.001303153100943e-66
aF-9.110353514007599e-256
aF-8.480532927912545e-48
aF-5.9223865215328675e-21
aF0.0
aF-3.4069227493634403e-54
aF0.0
aF-1.2663316555422968e-15
aF-3.811970012995879e-150
aF0.0
aF0.0
aF-3.6707933948884223e-146
aF5.065326622169187e-16
aF-2.2016722240150745e-51
aF-6.895688413150981e-89
aF-5.254662920039605e-35
aF-1.2608641982846245e-09
aF-1.3597132616109254e-16
aF0.0
aF-6.138366150813855e-125
aF6.956559334167552e-07
aF-2.5217284025493273e-09
aF0.0006739986666787663
aF-1.790806345438997e-230
aF-1.790806345438997e-230
aF0.0
aF0.0
aF-2.3346796494766835e-240
aF0.0
aF-3.2143996100918307e-72
aF-1.0229345649675454e-12
aF0.0
aF-1.69489388957835e-201
aF-6.67495948725285e-08
aF0.0
aF6.956559334167552e-07
aF-9.437980094177315e-153
aF-9.926363179752511e-45
aF0.0
aF0.0
aF0.0
aF-8.931043572091298e-55
aF2.1781619003113253e-70
aF-2.861842744332857e-177
aF0.0
aF-1.0100709475670435e-131
aF-3.4069227493634403e-54
aF-3.6240420603327296e-196
aF0.0
aF0.0
aF-0.000803469021968602
aF-8.817297533822916e-105
aF0.0
aF-7.029552803973752e-14
aF-1.1495137465884197e-114
aF-2.761598015185349e-142
aF-1.1384232740885112e-117
aF0.0
aF1.1071462899459408
aF-2.5138652814562514e-56
aF-144.11518807585588
aF-4.92765805007019e-216
aF-0.002008672558372321
aF-7.359284961222105e-253
aF3.0232992638763225e-137
aF-8.37116099364273e-29
aF-3.864537523017263e-15
aF0.0
aF-5.288447750321993e-10
aF-4.427237577435454e-42
aF-1.1914346093923462e-218
aF0.0
aF-4.499646641225974e-83
aF-276.82621516013995
aF0.0
aF-3.2886560823289426e-157
aF2.554675596204441e-28
aF0.0
aF-1.0774513145548408e-88
aF-1.8309827950620335e-39
aF-6.129982163463559e-20
aF-6.3008385592264995
aF-920.9298776292605
aF-1.69489388957835e-201
aF-1.3538624105145485e-10
aF0.0
aF-9.110353514007599e-256
aF-1.8497237868748435e-243
aF8.107163168958113e-154
aF0.0
aF-2.861842744332857e-177
aF-2.761598015185349e-142
aF-1.3512469153071421e-110
aF-7.503371099802651e-247
aF-3.4850590404981206e-70
aF-380.49087182750566
aF0.0
aF0.0
aF0.0
aF-4.925250774549314e-09
aF-0.07307508269286513
aF-1342.17728
aF-0.009578097130411809
aF-1.802320326329865e-205
aF0.0
aF-4.784065733147525e-18
aF-4.427765892078444e-111
aF-1.5881244193518706e-37
aF8.107163168958113e-154
aF0.0
aF-3.259068091452738e-195
aF-1.966643358912721e-178
aF-2.0844334283542506e-160
aF0.0
aF-1.3709437179640558e-179
aF-8.480532927912545e-48
aF-65.86789384150102
aF0.0
aF-3.2451855365842683
aF-2.449840655014761e-87
aF0.0
aF0.0
aF-44.015687360462195
aF-3.214923216944268e-141
aF-1.0232099897914178e-81
aF-4.951760157141522
aF0.0
aF0.0
aF-3.092637317260022e-153
aF0.0
aF-5.33996758980228e-07
aF-339.17683823474437
aF-2.410312426921038e-46
aF0.0
aF-5.1233368871667384e-273
aF0.0006739986666787663
aF-1.8312810514254244e-108
aF-872.3721023885049
aF-1.817096810739019e-11
aF0.0
aF-6.85544045103632e-17
aF-2.843560088253613e-202
aF0.0
aF-6.732973953981929e-20
aF-524.2879999999968
aF-1.484170702639216e-58
aF-1.4602188199846512e-86
aF-73.78697629483821
aF274.8772487420417
aF-2.3162190217967093e-74
aF-1.0707424912962649e-182
aF-1342.17728
aF0.0
aF-1342.17728
aF0.0
aF-2.077257061301542e-69
aF-1.066882309260779e-22
aF3.553292395031413e-64
aF-214.8180570575859
aF-4.204415099059542e-104
aF0.0
aF-2.450239547582626e-156
aF2.538454920154558e-10
aF0.0
aF-2.4663952202221113e-200
aF-7.850212180393532e-210
aF0.0
aF-3.993631600954687e-235
aF-4.204415099059542e-104
aF-0.6646139978924582
aF0.0
aF0.0
aF-8.001303153100943e-66
aF-7.3811017184480535e-137
aF-6.098158329792876e-81
aF0.0
aF-2.077257061301542e-69
aF-1.9858023172592395e-175
aF-9.71334446112865e-06
aF-1.4885657073574045e-11
aF-0.005021681388309347
aF-2.6132659696365976e-44
aF0.0
aF2.085920216068863e-07
aF-6.120222620324156e-241
aF-2.843560088253613e-202
aF-1.1987043769150981e-55
aF-6.039323501339212e-84
aF-1073.7418240000002
aF0.0
aF0.0
aF-5.0572621168629695e-254
aF-2.3346796494766835e-240
aF0.0
aF0.0
aF-7.850212180393532e-210
aF0.0
aF-2.1807857389482356e-123
aF0.0
aF-0.03568041009570537
aF-8.664592947217654e-11
aF-1.2420144738405697e-21
aF-0.002988740473251549
aF-73.78697629483821
aF-6.850519943444162e-45
aF0.0
aF-1342.1772800020185
aF0.0
aF-1.8192857062560835e-64
aF0.0
aF-7.45422215775155e-203
aF0.0
aF-1.1200561823894596e-104
aF0.0
aF-1.651727316994414e-232
aF0.0
aF-3.8900181066051323e-59
aF0.0
aF-6.097165137335929e-12
aF-1.2181642514250025e-27
aF-0.27875931498163287
aF0.0
aF-1.2996378896192323e-53
aF2.187250724629831e-07
aF-4.0305674067357365e-25
aF-1.0985465432680599e-82
aF-4.0438332213938465e-47
aF-1.3911242628269085e-101
aF-5.587716049383647e-39
aF-0.27875931498163287
aF-3.610976863627403e-36
aF-4.707641458830152e-46
aF-1.5186992180010107e-281
aF-6.039323489881815e-84
aF6.677134287908162e-145
aF3.5532919272747016e-64
aF2.7268703390485417e-261
aF-2.9279547316614796e-262
aF0.0
aF-2.6218670172081173e-66
aF0.0
aF-6.018538548798947e-21
aF-4.662222281988545e-49
aF-3.1028161207175616e-175
aF-7.54792484964309e-15
aF-1.6618056490412336e-69
aF-2.6819983966505364e-82
aF-9.874247895798599e-116
aF-1.5375394465392058e-24
aF-2.0909533242744655e-113
aF-8.347777442424663e-214
aF0.0
aF5.6439896447365055e-174
aF-2.8707942975843342e-130
aF-1.5938705539540512e-197
aF-7.671708012256628e-56
aF-1.4846494292127037e-265
aF-2.3041943589300087e-152
aF0.0
aF-4.096667214387683e-66
aF-1.127256178695718e-51
aF-3.2875849384677384e-19
aF-2.364797784850376e-190
aF-2.7620478633124716e-211
aF0.0
aF-2.077257061301542e-69
aF-1.6437924692338692e-19
aF-1.0918842017130593e-245
aF0.0
aF0.0
aF0.0
aF-6.855440451052287e-17
aF-2.5630838051613814e-50
aF-7.308698536898714e-71
aF4.29566692099378e-67
aF-1.7102142058762057e-12
aF-4.427044752441308e-42
aF-5.7706188008889416e-11
aF0.0
aF-2.3346796494766835e-240
aF-6.547847648072599e-82
aF-1.6999184386626016e-85
aF-9.07750936776558e-96
aF-3.705950434874735e-74
aF-9.105902894508878e-49
aF-1.0231012024155298e-81
aF-6.463401214262218e-63
aF-3.032755836711895e-90
aF-1.0918842017130593e-245
aF-7.355689779422112e-46
aF-3.142331601820314e-56
aF1.058962616316187e-63
aF0.0
aF0.0
aF0.0
aF-1334.411152972034
aF-3.705950434874735e-74
aF0.0
aF-2.6046931378436986e-22
aF-6.54678121579229e-13
aF-36.893488147592386
aF-2.7711385970315753e-233
aF-1.3298776707533668e-207
aF0.0
aF-1.9789655211644728e-84
aF2.187250724629831e-07
aF-2.1248980483282518e-85
aF-1.586472033226602e-53
aF-1.0600666159890682e-47
aF-1.0185179881672438e-06
aF-1.7555597020139832e-29
aF1.2980742148029374
aF-2.2973837159057404e-268
aF4.1906224947664633e-82
aF-5.791490800741983e-143
aF0.0
aF-0.0013164036458569654
aF-3.6228616783443205e-58
aF-3.300017508700563e-248
aF0.0
aF-8.1045225954707e-16
aF0.0
aF-4.1829567104279635e-13
aF0.0
aF-2.4663952202221113e-200
aF0.0
aF-7.214439543652595e-52
aF2.1153790848197915e-10
aF6.279146908094273e-141
aF3.321234955595916e-223
aF-5.743587019500525
aF4.4989137945432014e-14
aF-6.54678121579229e-13
aF-3.2457141582836593e-69
aF0.0
aF-6.114275830747483e-47
aF0.0
aF-4.559178526929774e-171
aF0.0
aF0.0
aF0.0
aF-2.3121547335935542e-243
aF0.0
aF-8.150507903142347e-94
aF-4.799811538287417e-40
aF-0.009577575649201866
aF-1106.308960838132
aF-1.198899647507272e-124
aF-4.559178526929774e-171
aF-4.399479459791215e-136
aF-2.4031881244709907e-162
aF-2.6657329143385237e-245
aF-0.27875931498163287
aF-1.4230290926106389e-117
aF-115.29215099468146
aF-69.19228326962005
aF-4.3149968987271075e-142
aF-1.355473478329244e-63
aF-1.8136129093953305e-111
aF1.206607958363384e-99
aF0.0
aF-1.6618056490412336e-69
aF0.0
aF0.0
aF-1.4744442113969273e-83
aF-1.0809975322457137e-110
aF-1.1649119385689887e-271
aF-281.7537358069126
aF-5.4275410738640294e-48
aF-73.78697629483821
aF0.0
aF-0.003213876088517982
aF-1.651727316994414e-232
aF-2.11097943899217e-41
aF-5.088119974777619e-91
aF-73.78697629483821
aF-3.092637317260022e-153
aF-9.940972186756032e-229
aF4.4989137945432014e-14
aF-2.084093941668913e-91
aF8.107163168958113e-154
aF-1.0167307864367305e-175
aF-2.4663952202221113e-200
aF0.0
aF0.0
aF-2.815666854266378e-136
aF0.0
aF-873.4048154592226
aF-1367.2382760480507
aF-872.9395199999999
aF-4.124350053430531e-179
aF0.0
aF-1.6618056490412336e-69
aF-5.809132250341517e-218
aF0.0
aF-2.6565552272041945e-154
aF0.0
aF-1.94064761537589e-21
aF-1.0100709475670435e-131
aF-1.8797523689537774e-215
aF-1.1235582092889493e-29
aF-1.8230774319026403e-33
aF-1.0809975322457137e-110
aF0.0
aF0.0005270829392253886
aF-2.1876070151035784e-76
aF-1.3298776707533668e-207
aF-281.7537358069126
aF-1.4097589233792843e-258
aF-24.28054363237422
aF-3.4959599509857205e-23
aF-6.463401214262218e-63
aF112.47848695826974
aF-2621.440000000661
aF0.0
aF0.0
aF-2.449840655014761e-87
aF-14.108901463092234
aF0.0
aF0.0006739986666787663
aF-0.0019156194260823618
aF-3.993631600954687e-235
aF0.0
aF3.553292395031413e-64
aF0.0
aF-5.114672824837727e-13
aF-6.698019685354904e-98
aF-72.87893575330058
aF-1.4744442113969273e-83
aF-8.347777442424663e-214
aF-2.0982354968877303e-204
aF-1.4841658659934678e-127
aF-9.71334446112865e-06
aF-4.0179995126147886e-72
aF-6.611636509322014e-79
aF-1.0384652468971847
aF-1.4508903275162645e-111
aF-3.792179941847242e-228
aF-2.0370359763344876e-06
aF-8.679270286627031e-271
aF-8.347777442424663e-214
aF-6.13936605467436e-194
aF0.0
aF-5.039029953171948e-94
aF1.0957271252678408e-11
aF-7.696957920354343e-78
aF-687.1947673600001
aF4.6194980401292386e-259
aF-2.6996819833465774e-126
aF-1.087947800744065e-85
aF-2.2521666186739863e-67
aF-3.3635320792476336e-104
aF-6.018538548798947e-21
aF-9.841855377288963e-94
aF4.1906224947664633e-82
aF-2.5795631403108713e-25
aF-79.96738690321175
aF-2.1672069295024745e-217
aF-6.13936605467436e-194
aF-3.531167580348573e-158
aF-2621.4400005339967
aF-5.518348104447419e-227
aF-321.70250712985734
aF-1.0774563535847929e-88
aF-0.27875931990688346
aF1.731627767777659
aF-2.9740338169555726e-27
aF-1.2981144321685113e-12
aF-9.71334446112865e-06
aF0.0
aF0.0
aF-1342.17728
aF0.0
aF0.0
aF0.0
aF-2.2677547641754107e-249
aF-2.4663952202221113e-200
aF-2.449840655014761e-87
aF0.0
aF0.0
aF-4.6719395860552235e-18
aF-0.005021681388309347
aF-1881.9926821837053
aF-670.8708592853438
aF-1.4839241434498337e-58
aF-4.6324380435934186e-74
aF-0.11150372599265315
aF-1.2996378896192323e-53
aF-7.796251209120016e-28
aF-1.1649119385689887e-271
aF-2.4663952202221113e-200
aF-2.1736316606670446e-101
aF0.0
aF0.0
aF-154.93694460004554
aF-2.513809220387138e-56
aF-1.5914343916590817e-06
aF-1.2381416924605024e-68
aF-3.65994341457685e-262
aF-0.002510627067058943
aF-3.385709315148509e-148
aF-2.0572157504587717e-72
aF-1.3911242628269085e-101
aF-73.78697629483821
aF-1.35591511166268e-201
aF-6.297761573024588e-25
aF-1.2181642516246877e-27
aF0.0
aF-3.792179941847242e-228
aF-1.985155524189838e-37
aF-671.088642037036
aF-1.1309663192366744e-73
aF0.0
aF0.0
aF-2.473706901455591e-84
aF-5.032967183571266e-41
aF-2.3114016447064746e-105
aF-1.7937313161991134e-41
aF3.553292395031413e-64
aF-4.1829567104279635e-13
aF0.0
aF0.0
aF-2.521728396569249e-09
aF326.54579756127816
aF-4.831464790629151e-112
aF-3.473626287272405e-48
aF-8.664592794128001e-11
aF-5.980082166329772e-18
aF-8.730806327161949e-39
aF-2665.0806460880267
aF-1.0420469708344565e-91
aF-1.9476692455941977e-181
aF-0.11417981541647682
aF-2.4663952202221113e-200
aF-2.449840655014761e-87
aF-3.429386078901711e-98
aF-4.259347146383272e-123
aF0.0
aF-1.0985465432680599e-82
aF-0.004018012606596203
aF-1.0707424913079718e-182
aF0.0
aF-4.3843327638042637e-45
aF0.0
aF-3.2355935504953004e-116
aF-7.054987055920632e-174
aF-3.2462428660924196e-138
aF-3.576720803565282e-108
aF0.0
aF2.187250724706421e-07
aF-3.278401575389334e-204
aF-1.9352267146257045e-206
aF-1.3041277906070627e-144
aF0.0
aF-4.185580496821365e-29
aF-7.145998709385579e-124
aF5.178333890369242e-07
aF-749.9139601861095
aF-1.3084200690420471e-166
aF0.0
aF-1.153109308761081e-67
aF-8.132521551409087e-107
aF-1.3430520249494373e-273
aF-1.9649171588522675e-263
aF-0.001606938044258991
aF-2.535301201102021
aF-0.27875931498163287
aF-655.3647890493589
aF-1.9165557081038897e-209
aF-9.288723514062482e-250
aF-1.94064761537589e-21
aF-6.442197994971221e-41
aF-4.925250786229155e-09
aF20.15883671720322
aF2.1153790847068224e-10
aF0.0
aF-2.513458974931145e-15
aF-1.0739167302484449e-66
aF-4.109481173084673e-19
aF0.0
aF-1.8674395246304355e-171
aF-1.3597132616109254e-16
aF-3.5778861521733526e-246
aF-6.442197994971221e-41
aF-1.4227973272670122e-48
aF0.0
aF405.3993790890153
aF-8.263199609878115e-10
aF-2.076918743413932
aF-1237.9864713415466
aF0.0
aF-532.121893937088
aF-6.455624695217806e-10
aF-6.984645061729559e-39
aF0.0
aF-8.132521551409087e-107
aF0.0
aF-1.62962878106759e-06
aF0.0
aF0.0
aF-4.338221686440183e-133
aF0.0
aF-144.11518807585588
aF0.0
aF-8.545339902748353e-77
aF23.473249075147493
aF0.0
aF-1.0163996283851971e-37
aF-1.2911265219592663e-09
aF0.0
aF-0.019156194260823618
aF-1.8318777099127563e-246
aF1.0915285655411629e-107
aF-47.22366482869646
aF5.456753954476218e-39
aF-2.9843083076265864e-118
aF-5.334411546303895e-23
aF-3.1933450207218415e-28
aF0.0
aF-1.2221735978899116e-49
aF-4.87773210991244e-12
aF-6.156563468186643e-09
aF-5.20566162655606e-176
aF-2.5229609216359374e-216
aF-1.153109308761081e-67
aF-4.110150583476413e-88
aF-9.467510422415792e-106
aF-3.2739238240362994e-82
aF-1.3207363278391661e-25
aF-0.004018012612693365
aF0.0
aF0.0
aF0.0
aF-3.7354846522888208
aF-4.3843327638042637e-45
aF0.0
aF-1.1569045397613125e-89
aF-0.0008227522786606034
aF0.0
aF-7.922816251426435
aF0.0
aF0.0
aF-4.2037303360316835e-35
aF-1.1838232235999e-243
aF-1.8668312833510484e-33
aF-144.11518807585588
aF-7.721033222477375e-31
aF-2.259211166966578e-20
aF-5.070602400912919
aF-2.5138652814562514e-56
aF0.0
aF-1.3340373941467205e-160
aF-1.4744442113969273e-83
aF-1.1912405632880969e-149
aF-1.6225942355874232
aF1.8997886672772153
aF-2641.06412202517
aF-4.26004096906349e-192
aF-2.410705052685205e-115
aF-2.410705052685205e-115
aF0.0
aF-3.0237917416026635e-206
aF146.11534924218304
aF-1.9165557081038897e-209
aF0.0
aF0.0
aF-2.7702360131120542e-95
aF-3.730385384533233e-118
aF-1.2663335961899095e-15
aF0.0
aF1.3764548916698797e-25
aF-1.0286078752293859e-72
aF-3.352497995813171e-82
aF-4.02577145398117e-72
aF-2.9073548971824305e-11
aF-1.27468113317237e-59
aF-2.8519898827825216e-86
aF-0.005021681388309347
aF0.0
aF-5.4924933770406456e-83
aF-4.569424886951183e-209
aF1.5414538032312664e-36
aF3.5612781128368855e-102
aF0.0
aF0.27222547635178296
aF-5.360161599491407e-236
aF-4.856670279471479e-06
aF1.6923032801031474e-10
aF0.0
aF-6.7654750904091205e-233
aF-2.1385600702357617e-60
aF0.0
aF0.0
aF0.0
aF-6.851635852982568e-114
aF-762.3648135960847
aF-6.962865924762016e-86
aF-5.587716049383647e-39
aF-3.352497995813171e-82
aF-5.980082166329772e-18
aF3.701491575958042e-21
aF-72.05759403792794
aF-1.667003608219967e-22
aF-6.67495948725285e-07
aF-1.2181642514250025e-27
aF-6.129982163463559e-20
aF-1371.1772983429885
aF-1.7386221171832166e-32
aF-3.396852707065473e-170
aF-2.7085674521188072e-148
aF0.0
aF-3.331623440995878e-176
aF-7.475112619008106e-46
aF-1.5033120938192076e-77
aF-6.547847648072599e-82
aF-1.7451970169910668e-261
aF-1.6306908684437789e-282
aF0.0
aF-1.1908525658859236e-11
aF-3.753758405500604e-24
aF-4.456584937143934
aF0.0
aF0.0
aF0.0
aF-5.792434200641477e-212
aF-2.1736316606670446e-101
aF-0.007846377169233355
aF-4.0986695097333906e-273
aF-4.204415099059542e-104
aF-1.9979188617967977e-12
aF0.0
aF-1.4463662409107756e-158
aF-0.0467680524006867
aF0.0
aF-4.740224927309052e-228
aF0.0
aF-0.011972621385211827
aF-2127.65400431963
aF-5.587716049383647e-39
aF-2.1530111864992163e-173
aF4.188497584294641e-82
aF1.6923032801031474e-10
aF-0.0010975515397332453
aF-3.4736262872729785e-48
aF-1.2786682062094318e-12
aF0.0
aF175.86477070486805
aF5.606106910518835e-61
aF0.0
aF175.91793725560393
aF-0.13812506139716418
aF-4.7707021809609924e-203
aF5.202203457403267e-07
aF0.03741444191567113
aF281.45181164666127
aF-1.431945195923751e-23
aF-6.894117751091954e-35
aF0.0
aF0.0
aF-9.687789553853114e-260
aF-3.184424378366342e-213
aF-1.2996378896192323e-53
aF0.0
aF2.23080111115844e-139
aF-1.4281778810867308e-277
aF5.164499756173822e-10
aF-73.78697629483821
aF-1.588900634252145e-244
aF-4.560769841805168e-102
aF219.90232513801507
aF-1.2996378896192323e-53
aF-5.120834017984603e-66
aF0.0
aF-4.485616089975522e-130
aF-5.552923758643434e-133
aF0.03741444194406327
aF-2.618712486316916e-13
aF2.0282409602301024
aF0.000524571152028188
aF-47.22366482869646
aF0.037414441915695616
aF-1.1987043769150981e-55
aF-1.8309827950620335e-39
aF0.0
aF234.67976183250948
aF6.032057205060449e-31
aF0.0
aF0.0
aF0.0
aF-1254.883600122801
aF-3.2255045002307763e-163
aF-1.6571636504536578e-254
aF-2.964760347899788e-74
aF-8.788372346144479e-83
aF-4.4270447524421955e-42
aF0.0
aF-4.815609167711599e-62
aF0.0
aF-2.5639188958236862e-188
aF-6.657398288692729e-261
aF-2.326641725172064e-149
aF-115.29215046068471
aF-1.2424191405500476e-159
aF-1.2582417958928166e-40
aF-1.172401734344164e-246
aF-2621.44
aF-0.0025711008708143857
aF-1267.1384410171918
aF0.0
aF-1.1384232740885112e-117
aF-2.3262627906009212e-80
aF-6.123604138322005e-19
aF-9.520756573423766e-79
aF0.03741444191567113
aF-2.017382717255399e-09
aF-0.007846377169233355
aF-535.2879143010708
aF-2.364797784850376e-190
aF-6.875306420630894e-205
aF-1.0600645852822216e-47
aF-1108.7006573315364
aF-4.910692920651084e-125
aF-3.337479743626425e-07
aF0.0
aF-1.0065934367142533e-40
aF-850.1615658981361
aF-1810.5983645246379
aF-6.850519943444162e-45
aF0.0
aF0.0
aF5.5099134260434495e-36
aF4.4989137945432014e-14
aF-8.483296011134877e-186
aF-1754.6556236310903
aF-1.9099573168810152e-118
aF0.0
aF-2.2891013142817805e-108
aF0.0
aF-1.0635556153863894e-69
aF-115.29215046068471
aF-2378.6269767107456
aF-1.431945195923751e-23
aF-2.380002240974222e-165
aF-5.089777759619088e-229
aF0.0
aF0.0
aF-1310.7239226677489
aF1.1986479422104401
aF-8.498207885068285e-17
aF-1.2623830496605896e-62
aF0.0
aF-1.629628782656482e-06
aF-0.2230074519853063
aF-739.6471449670676
aF-1.5983352577617898e-12
aF0.0005252865990656426
aF-1.582914569427871e-15
aF-0.14272476927059602
aF-3.47532406387619e-255
aF2.5546755962044466e-28
aF-2.769784831689582e-26
aF-4.1365767771278196e-63
aF-1.295585430066016e-100
aF0.0
aF0.0
aF-2.1315445134672338e-38
aF0.0
aF-4.427044752441308e-42
aF-7.2393635009274795e-143
aF0.0
aF-1.3207363278391661e-25
aF0.0
aF0.0
aF-1.3294445192329868e-69
aF-8.184809560090748e-82
aF-1.5867304602203043e-122
aF2.5546755962044466e-28
aF-7.499705528574089e-40
aF0.0
aF-1.3512469153071421e-110
aF-2.017382717255399e-09
aF-1.6226189370611035e-15
aF0.0
aF-4.217566082189232e-57
aF-2.797679189209583e-161
aF0.0
aF-4.398762929285225e-67
aF-4.0318806252884704e-163
aF-1.8312810514254244e-108
aF0.0
aF-0.1427247692705999
aF-8.445293220669638e-111
aF0.0
aF-4.39876292709763e-67
aF-1.4279452771722447e-208
aF-6.895688413150981e-89
aF-1.9786432117848388e-15
aF0.0
aF0.0
aF-1.6306908684437789e-282
aF0.0
aF-3.4186927554089784e-145
aF-2.1876070151035784e-76
aF-1.3510268409549888e-41
aF-2.017382717255399e-09
aF-0.002009340051272463
aF-4.905583521948651e-141
aF-1.6298942368609793e-75
aF146.45494854191804
aF-1.7102142046906876e-12
aF146.45494881976316
aF-6.927280764799555e-11
aF0.0
aF-5.773432091919863e-190
aF2.0306842025300504e-53
aF-2.244778375067783e-45
aF-1.3863348470604088e-10
aF-2.0508010531899672e-119
aF-4.7707021809609924e-203
aF-4.799811538287417e-40
aF0.0
aF0.0
aF4.4989137945432014e-14
aF0.0
aF0.0
aF-4.39876292709763e-67
aF-2.613691655343082e-113
aF-7.499705528574089e-40
aF-2.639154131459262e-110
aF0.0006739986666787663
aF0.0
aF-2048.000000000018
aF-6.453777663438833e-16
aF-1.8483373190328866e-08
aF-6.942285371712922e-202
aF-3.259068091452738e-195
aF-2.6819983966505364e-82
aF8.702164874309922e-17
aF-1.2383433784837418e-137
aF-1.6406408425519737e-119
aF-2.761598015185349e-142
aF-1.1276234554530983e-189
aF-5.718661585276328e-262
aF-1073.7418240000002
aF-8.37116099364273e-29
aF-5.33996758980229e-07
aF0.0006739986666787663
aF0.0
aF-2.2966354380674674e-130
aF-3.4622310392507033e-26
aF0.0
aF-5.334411546303895e-23
aF-2.880712123353755e-221
aF0.797536797473942
aF0.0
aF-1.431945195923751e-23
aF-1.6224874336635668e-15
aF0.957044156963158
aF-2.1248980483282518e-85
aF-5.748504978193777e-184
aF-1.3465947907963858e-19
aF-4.799811538287417e-40
aF0.0
aF0.0
aF-6.504957621665365e-38
aF-2.482657241018977e-244
aF0.0
aF-3.4491996422180354e-22
aF-1.3870124348815836e-217
aF-7.87348430183117e-94
aF-2.797679189209583e-161
aF-876.1166389552105
aF-1.036299536933432e-31
aF0.0
aF-4.957725103833146e-53
aF-2.0916345878339675e-251
aF-1.0843787826633952e-63
aF-1.7929168521067177e-20
aF-2.5893182038338404e-254
aF-524.0463128382562
aF-4.863314709687395e-128
aF-1.6571636504536578e-254
aF-8000.0
aF-3.6707933948884223e-146
aF0.0
aF-2097.152
aF-4.926053069026779e-78
aF0.0
aF-429.496731637036
aF0.0
aF-9.74531401140002e-28
aF-1.298114397510192e-12
aF-37.778931862957165
aF0.0
aF-6.755134204774944e-42
aF-0.07307508186654517
aF0.0
aF-8.186142817585594e-151
aF2.110271152436807e-10
aF0.0
aF0.0
aF-6.48573053516649e-154
aF-1.694341847911555e-63
aF-6.504957621665262e-38
aF-1.087947800744065e-85
aF-1.2107764658433924e-190
aF-2048.0
aF-5.106529755454022e-251
aF-4.894583368510407e-103
aF-1.5983352577617898e-12
aF-1.4792970526121436e-105
aF-2.1876070151035784e-76
aF0.0
aF-1.3556942770125572e-132
aF-6.569398592280535e-104
aF0.0
aF-7.922816251426435
aF0.0
aF0.0
aF-2.017382717255399e-09
aF-2.195164611705334e-167
aF-8.509830898889314e-139
aF-3.773962425590314e-15
aF0.0
aF-2.6059662129249728e-229
aF0.0
aF-6.874186655923773e-136
aF0.0
aF8.240117632187163e-195
aF-0.004017345110647478
aF-7.770675568902921e-06
aF-1.0121761172390749e-100
aF-2.639154131459262e-110
aF-8.184809560090748e-82
aF-2.0508010531899672e-119
aF0.0
aF-2.166503176272681e-79
aF-1.1630052754557475e-11
aF61.51989148610353
aF-8000.0
aF-3.7661131670641215e-46
aF-9.316260133029275e-134
aF4.2881292795931255e-236
aF0.0
aF-2.9279547316614796e-262
aF-1.4508903275162645e-111
aF-1.151398253900485e-158
aF0.0
aF-2.5463240439670805e-06
aF-3.6228616783443205e-58
aF-3.092637317260022e-153
aF-2.588474840396228e-116
aF-3.2665824620457467e-44
aF-9.07750936776558e-96
aF-1.6618056490412336e-69
aF-2.2677547641754107e-249
aF-1.8312810514254244e-108
aF-0.0507860656470908
aF-2.7697848340930817e-26
aF-2.5893182038338404e-254
aF-6.917257425689544e-42
aF-2.3346796494766835e-240
aF-4.863314709687395e-128
aF-0.0008227522846148661
aF-9.926363179752511e-45
aF-2.0909533242744655e-113
aF6.279146908094273e-141
aF-429.496731637036
aF-3.773962425590314e-15
aF-3.169126500570574
aF-2.4737104816147535e-112
aF0.0
aF8.901745239978068e-33
aF-6.610559687903343e-10
aF-3.2665824620457467e-44
aF0.0
aF-1.7170382281266183e-220
aF-1.721847945638578e-35
aF-2.244778375067783e-45
aF-291.3785070116898
aF-1.582914569427871e-15
aF-3.0782817340933214e-09
aF-3.7354846522888208
aF-6.547847648072599e-82
aF-2.4655918938683386e-62
aF-2.7076853416036383e-10
aF0.0
aF-1.27468113317237e-59
aF-3.646748787544971e-102
aF1.6759759912428262e-13
aF-2621.4400000001733
aF-4.427044752441308e-42
aF0.0
aF-1.29537442116679e-31
aF-8.263199609879435e-10
aF-9.903520314283044
aF-45.03599627370497
aF-1.3820120538117678e-57
aF-4.185580496819707e-29
aF-7.922816251426435
aF-8.37116099364273e-29
aF0.0
aF-4.427044752441308e-42
aF0.0
aF-9.379213892546933e-247
aF-1.3863348470604088e-10
aF0.0
aF-3.7661131670641215e-46
aF2.593455179443252e-16
aF-8.760968925733441e-130
aF2.2000363840746516e-41
aF-1.1459293959002452e-161
aF-0.019156194260823618
aF-0.012777182411704908
aF-5.718661585276328e-262
aF-115.29215046134576
aF-144.11518807585588
aF-873.4048154592226
aF0.0
aF-0.0013164036458569654
aF-2.326641725172064e-149
aF0.0
aF-3.647517819444719e-83
aF-1.0229345649675454e-12
aF-36.893488147592386
aF-6.3008385592264995
aF-3.864537523017263e-15
aF-920.9298776292605
aF-1.2608641982846245e-09
aF-8.664592947217654e-11
aF-8.37116099364273e-29
aF-1.721847945639635e-35
aF-1.0229345649675454e-12
aF-380.49087182750566
aF-6.8527519442960955e-183
aF-7.359284961222105e-253
aF0.0
aF-3.993631600954687e-235
aF-2.077257061301542e-69
aF0.0
aF0.0
aF0.0
aF-5.9039196608567345e-68
aF-5.9039196608567345e-68
aF-1.6670098452209298e-22
aF-1.2996378896192323e-53
aF-3.6240420603327296e-196
aF-2665.0806460880267
aF-1.8497237868748435e-243
aF-2621.44
aF-1.872975588929841e-55
aF-0.002008672558372321
aF-2.5893182038338404e-254
aF-3.0623008187684514e-87
aF-2.7702360131120542e-95
aF-1.94064761537589e-21
aF-4.925250774549314e-09
aF-2.4896115882272848e-59
aF-2.2556516777144785e-67
aF-3.082994025277639e-200
aF0.0
aF0.0
aF0.0
aF-1.6670098452209298e-22
aF0.0
aF-0.004017345110647478
aF-1.1908525658859236e-11
aF-1.1912405632880969e-149
aF-8.664592947217654e-11
aF-5.1492347399646324e-126
aF0.0
aF-1.6618056490412336e-69
aF214.80625003043798
aF-1.8142038113403286e-249
aF-0.0006582018410994506
aF0.0
aF0.0
aF0.0
aF-5.482201555436876e-183
aF1.064553353711504e-45
aF-1073.7418240000002
aF-1.7052356107738184e-38
aF-0.07307508186654517
aF-6.986920762531389e-177
aF-9.052152740961375e-281
aF-2.326641725172064e-149
aF-4.0980019692366674e-204
aF-3.0623008187684514e-87
aF0.0006739986666787663
aF0.03741444191567113
aF-1.5381712416683356e-162
aF0.0
aF0.0
aF2.187250724706421e-07
aF-8150.453448847673
aF0.0
aF0.0
aF1.3764548916698797e-25
aF-0.007846377169233355
aF3.0232992638763225e-137
aF-1.146116960366844e-230
aF-1.4230290926106389e-117
aF-3.531167580348573e-158
aF-1.2422167908467455e-90
aF-0.009578097130411809
aF1.0703937411631503e-44
aF0.0
aF-2.690387415060278e-35
aF0.0
aF1.0703937411615755e-44
aF-1.834798892792059e-08
aF0.02922880074158015
aF-7.359284961222105e-253
aF0.0
aF-1.2996378896192323e-53
aF-5.106529755454022e-251
aF4.1906224947664633e-82
aF-1.8497237868748435e-243
aF0.0
aF0.0
aF-1.7052356107738184e-38
aF-1.7679985822190185e-280
aF-2.084093941668913e-91
aF-1.891222039731266e-52
aF-1.5938705539540512e-197
aF-7.721033222477375e-31
aF0.0
aF0.0
aF-47.22366482869646
aF-3.7661131670641215e-46
aF-0.2266283358545224
aF-4.185580496821365e-29
aF-0.2266283358545224
aF-2.110638249380602
aF2.506843185284774e-241
aF0.0
aF-6.54678121579229e-13
aF0.0
aF-2.8793048285398904e-14
aF-2.6819983966505364e-82
aF-1.7558456723976763e-98
aF-9.197607965110044e-184
aF-6.484674219751744e-85
aF-8.872556732067513e-11
aF-1.7052356107738184e-38
aF-4.0305674067357365e-25
aF-2.131544513467273e-38
aF0.03741444194406327
aF-6.157566336283475e-78
aF0.0
aF-6.610559687903343e-10
aF-1.6724902205674225e-44
aF-1.651727316994414e-232
aF0.0
aF-3.2875849384677384e-19
aF-6.785531485608287e-117
aF-4.602094425247536e-30
aF-9.840252457850918e-25
aF2.0306842025300504e-53
aF-6.850519943444162e-45
aF-7.926688623106885e-207
aF0.0
aF-3.386260827347616e-217
aF0.0005265614583427862
aF-0.0008227522786606034
aF-5.113013018610169e-13
aF3.1400848721574125e-210
aF0.0
aF-2.5138652814562514e-56
aF0.0006739986666787663
aF-1310.7210284413286
aF-1.779365920704609e-255
aF-1.3560073904633845e-201
aF-4.110150583476413e-88
aF-1.3207363278391661e-25
aF-5.088119974777619e-91
aF-2.5893182038338404e-254
aF0.0
aF-2.0704426093536492e-47
aF-4.203730889414345e-35
aF-1.0707424912962649e-182
aF0.0
aF-4.0179995126147886e-72
aF-1.5087513613821964e-237
aF-2.4896115882272848e-59
aF0.0
aF-8.777798510069916e-30
aF0.0
aF-1.2996378896192323e-53
aF-7.008775140586753e-130
aF-2.124910471817138e-85
aF-4.1315998049390573e-10
aF-2.8707943483068708e-130
aF-671.0886468937082
aF-4.92765805007019e-216
aF-2.8519898827825216e-86
aF-6.720064891092885e-120
aF0.0
aF4.4989137945432014e-14
aF-3.2355935504953004e-116
aF-0.0013164036458569654
aF-3.082994025277639e-200
aF0.0
aF-8.445293220669638e-111
aF0.0
aF-2120.0115795222946
aF-1.2070010891057571e-237
aF0.0
aF-1.0398796744099787e-122
aF2.506843185284774e-241
aF-3.181099121983587
aF-2.522550013026974e-147
aF0.0
aF-2.9073548971824305e-11
aF-1.3336028865759737e-22
aF0.0
aF-4.217566082189232e-57
aF-4.1315998049390573e-10
aF0.03741444191567113
aF0.0
aF0.045672446342573725
aF-8.618217361434548e-48
aF-3.4867624049969015e-277
aF-1.084732089330144e-201
aF0.0
aF-0.0016455045573212069
aF-1.5985956172052244e-81
aF-5.238278118458079e-82
aF-8.052747493714026e-41
aF-1.2786682062094318e-12
aF-9.46750113671772e-106
aF1.1455561567390009e-23
aF-1.3336028865759737e-22
aF-1.0163996283851971e-37
aF-4.848939923865189e-244
aF-6.022453568223944e-269
aF-3.1990427838934373e-10
aF0.0
aF0.0
aF-3.9661800830665048e-53
aF-4.471629288020089e-177
aF-1.891222039731266e-52
aF-4.678329011868145e-140
aF-4.864106915142979e-197
aF1.770817900976523e-42
aF1.031825256231962e-25
aF-6.360149968472024e-91
aF-2.6806913695010886e-13
aF-2.11097943899217e-41
aF-7.770675568902921e-06
aF-0.004017345110647478
aF-0.0020090063032981013
aF-3.082994025277639e-200
aF0.0
aF-4.863314709687395e-128
aF-4.6339473605131814e-212
aF-1.0739167540785313e-66
aF0.0
aF0.0
aF-1.651727316994414e-232
aF-8.131197027081577e-38
aF-23.611832414483608
aF-2.462625387274657e-09
aF-3.6581554471285954e-55
aF0.0
aF-1.0363008235996052e-59
aF-0.00167221990230701
aF-1.0809975322457137e-110
aF0.0
aF-3.6353776955813503e-149
aF-3.519010341678104e-67
aF-6.547847648072599e-82
aF-8.480532927912545e-48
aF-9.256743941828963e-159
aF-1.3002731032602985e-260
aF0.0
aF-2.9279547316614796e-262
aF5.962406485138736e-134
aF-1.538040399661434e-162
aF-1.732918558825511e-10
aF-2.879304828507649e-14
aF-5.773432091919863e-190
aF0.0
aF-2.449840655014761e-87
aF-1.0231011950113436e-81
aF0.0
aF-5.238278118458079e-82
aF0.0
aF1.0915285655411629e-107
aF8.594133025788617e-205
aF-671.08864
aF-215.96420889382654
aF-2.2505245413613544
aF-874.4827374935463
aF528.5968856656427
aF-0.6646139978924582
aF-3.062799649619444e-156
aF-2.473706901455591e-84
aF0.0
aF-8.875433827102908e-149
aF0.0
aF-6.270571463101607e-19
aF-3.7537585180323035e-24
aF0.0
aF0.0
aF0.0
aF0.0
aF0.0
aF-0.27875931498163287
aF-4.0980019692366674e-204
aF-1.538040399661434e-162
aF0.0
aF-5.1155059750567834e-82
aF-8.37116099364273e-29
aF0.0
aF-2.5142747753733554e-125
aF441.8809279129664
aF-5.33996758980228e-07
aF5.606106910518835e-61
aF-2.4655918938683386e-62
aF0.0
aF-1.1128994102615267e-101
aF-2.131544513467273e-38
aF-2.131544513467273e-38
aF-2.131544513467273e-38
aF0.0
aF-6.09716554845074e-12
aF-4.164529301244848e-176
aF0.0
aF-19.34281311383407
aF-5.33996758980228e-07
aF-858.9934592000002
aF1.0703937411631503e-44
aF-1.6306908684437789e-282
aF-6.547847648072599e-82
aF0.0
aF-4.365411526032075e-39
aF-6.504957622725316e-38
aF0.03741444191567113
aF-1.0843787826633952e-63
aF-524.2879991656303
aF0.0
aF-1.0163996283851971e-37
aF-7.215614733560435e-121
aF-8.903195282092214e-102
aF-1.6618056490412336e-69
aF-7.029552803973752e-14
aF-8.37116099364273e-29
aF-6.021472705620389e-200
aF-4.552951447254439e-49
aF-7.308698536898714e-71
aF-38.39158367048029
aF-1.9349115288808465e-137
aF-3.4850590404981206e-70
aF0.0
aF-2621.44
aF-1.985670900029431e-37
aF-7.935076215753364
aF-140.73748835532803
aF0.0
aF-1.6306908684437789e-282
aF-1.6306908684437789e-282
aF0.04567192616659095
aF-2.7255381994907525e-54
aF0.0
aF0.0
aF-1.3451937339448646e-35
aF-4.427044752441308e-42
aF0.0
aF-1.2070010891057571e-237
aF-2.195164611705334e-167
aF-1.72835941101972e-264
aF-4.096667214387683e-66
aF-1.1679847981112836e-17
aF-2.1668539616950456e-148
aF-4.692198018002948e-24
aF-1.817096810739019e-11
aF-1.431945195923751e-23
aF-1.6306908684437789e-282
aF-5.1492347399646324e-126
aF-5.411498570934378e-164
aF-1.5375394465392058e-24
aF-1.8079578011385847e-158
aF-858.9934592000002
aF-1.9807040628566088
aF-5.9039196608567345e-68
aF-2.5462949723967507e-06
aF1.1348735051032171e-164
aF-2.3110280580151783e-64
aF-3.4622310392507033e-26
aF0.0
aF2.7268703390485417e-261
aF-4.6324380435934186e-74
aF0.0
aF-4.602094425247536e-30
aF0.0
aF0.0
aF0.0
aF-6.610559687903343e-10
aF0.0
aF0.0
aF-1.0843787826633952e-63
aF-5.039029953171948e-94
aF-5.4462917752891604e-139
aF0.0
aF0.0
aF-144.11518807585588
aF-2.9662094101582237e-281
aF-3.092637318244364e-153
aF-2.0707798723169822e-116
aF-5.963377726201241e-203
aF0.0
aF-3.1135355197722804e-266
aF-1.7564177529213441e-236
aF-8.481914357010359e-117
aF-1310.9003545540318
aF-5.980082166329772e-18
aF-4.018654021180335e-141
aF-1.6298942368609793e-75
aF0.0005264247551724871
aF-0.004017345110647478
aF-4.109481173084673e-19
aF-2.449840655014761e-87
aF-1.5881244193518706e-37
aF0.0
aF0.0
aF-6.219578863996761e-213
aF-1.2107764658433924e-190
aF-4.678329011868145e-140
aF-1342.17728
aF3.1736323597383773
aF0.0
aF-7.499705528574089e-40
aF-4.4146784835579355e-227
aF-6.339285465397772e-69
aF-6.129982163465296e-20
aF-2621.44
aF-1.2654267518551851e-169
aF-2621.44
aF-4.018654021180335e-141
aF-5.791490800741983e-143
aF-2.084093941668913e-91
aF0.0
aF-1.431945195923751e-23
aF-4.925250774549314e-09
aF-8.401449437835055e-189
aF-2.1807857388886054e-123
aF5.962406485138736e-134
aF-4.894583368510407e-103
aF-3.142331601820314e-56
aF-6.917257425689544e-42
aF-6.022453568223944e-269
aF-3.634193621478038e-11
aF-1219.0792649595005
aF0.0
aF0.0
aF-3.142331601820314e-56
aF-3.8278760234605643e-87
aF-2.522550013026974e-147
aF293.2878944735363
aF0.0
aF-3.497098986511979e-161
aF0.0
aF-4.1189276672166385e-282
aF-1.6306908684437789e-282
aF-1.342395912810556e-66
aF-8.263199609878115e-10
aF-2.1807857389482356e-123
aF-1.3428332852794713e-204
aF0.0
aF-2.077257061301542e-69
aF0.0
aF-1.3820120538117678e-57
aF-1189.2841578681596
aF0.0
aF-1.2940266308460308e-47
aF-1.608873780132001e-56
aF0.0
aF-4.110150583476413e-88
aF0.0
aF-6.360149968472024e-91
aF0.0
aF-3.320694034005243e-154
aF0.0
aF-1.0398796744099787e-122
aF-4.784065733063817e-18
aF-1.4790561230404956e-36
aF-5.4462917752891604e-139
aF0.0
aF-1.0600666159890682e-47
aF0.0
aF-1.8142038113403286e-249
aF-1.4790561230404956e-36
aF-0.5419457802457209
aF-4.513721078614793e-36
aF-0.009807971461541692
aF-2.3262627906009212e-80
aF1.8095249774220357
aF-950.3414580067296
aF0.0
aF-1.4166543207812185e-42
aF-6.022453568223944e-269
aF1.770817900976523e-42
aF0.0
aF0.0
aF-1.1988996388308309e-124
aF-1.6724902205674225e-44
aF-5.533805940551635e-42
aF-2.209998227773773e-280
aF-6.129982163463559e-20
aF-2.2016722240150745e-51
aF0.0
aF-1.2461023185904492e-43
aF-9.105902894508878e-49
aF-2.3121547335935542e-243
aF-1.1718289888397015e-39
aF-19.34281311383407
aF-1.8312810514254244e-108
aF-7.977653229953833e-182
aF-2.66998379490114e-07
aF-2.473706901455591e-84
aF0.0
aF-2.3562723457267383e-30
aF0.0
aF-8.36544917402281
aF-8.238775583943412e-126
aF-2.4579038205177167e-109
aF0.0
aF47.41493439890722
aF0.0
aF-1.7170382281266183e-220
aF3.5612781128368855e-102
aF-5.8277778524856814e-49
aF2.522558233591179e-78
aF-2.3346796494766835e-240
aF-1.705235612844258e-38
aF-2.5146843359946173e-194
aF-0.002009340051272463
aF0.0
aF-7.45422215775155e-203
aF-1.985155524189838e-37
aF-1.149326528034705e-45
aF0.0
aF-2.6046931378436986e-22
aF-9.105902894508878e-49
aF-2.4024053852175093e-24
aF-0.003213876088517982
aF-1.3430520249494373e-273
aF-6.178839079558152e-169
aF-1.084732089330144e-201
aF-1.3560073904633845e-201
aF0.0
aF-2.613691655343082e-113
aF0.0
aF-3.407477717106618e-123
aF-5.106529755454022e-251
aF-429.4967296000001
aF0.0
aF-1073.7418240000002
aF-2.3721946319839163e-143
aF-2.213522376220654e-42
aF-1.8347990860189338e-08
aF0.0
aF-2.899705916431062e-265
aF4.4989137945432014e-14
aF0.0
aF-6.022453568223944e-269
aF-1.761911649145466e-189
aF-1.2461023185904492e-43
aF0.0
aF-4.370661777958864e-92
aF0.0
aF-1.5627545220900278e-65
aF-1.404676537918141e-98
aF-9.713433186695961e-06
aF-9.973690928621137e-251
aF-9.498661542358193e-128
aF0.0
aF-54.39813286612139
aF-3.519583567832972e-136
aF0.0
aF-5.9039196608567345e-68
aF-1.9476692455941977e-181
aF-1.872975588929841e-55
aF-6.67495948725285e-07
aF-1.7170382281266183e-220
aF-9.140744367311244e-169
aF3.474737311370567e-52
aF-2.6395840341955398e-179
aF-6.83138582562779e-230
aF-2.6395840341955398e-179
aF-8.2414598990427e-264
aF-2.4737104816147535e-112
aF-434.18695292756064
aF-3.6355756243696623e-149
aF-3.092637317260022e-153
aF-37.780248266603
aF0.0
aF-0.007846377169233355
aF-6.985782819463442e-108
aF-4.784065733063817e-18
aF0.0
aF0.0
aF-1.1912405632880969e-149
aF-9.654436061809613e-169
aF0.0
aF-6.219578863996761e-213
aF-2.0782723456602697e-276
aF-1.9786432117848388e-15
aF-2.6046931378436986e-22
aF0.2209192656970939
aF-9.973690928621137e-251
aF0.0
aF-18.889465931478583
aF-0.13937965749081643
aF-2.861842744332857e-177
aF-3.152673964177139e-78
aF-1.3336028865759737e-22
aF0.0
aF-3.4867624049969015e-277
aF-6.382122583963066e-182
aF-2.690387415060278e-35
aF-3.043233196240934e-181
aF0.0
aF-3.407477717106618e-123
aF-4.3699499387321505e-23
aF-1.6357915037510397e-235
aF-2.024681989589615e-169
aF-2.6046931378436986e-22
aF0.0
aF9.244100769003097e-37
aF-7.214439543652595e-52
aF0.0
aF-6.8527519442960955e-183
aF-6.610559687902507e-10
aF0.0
aF-5.533805940551635e-42
aF4.4989137945432014e-14
aF-4.951760157141522
aF-0.0047885275460672104
aF-3.199385316389622e-168
aF-0.009807971461541692
aF-5.465976908298873e-70
aF-7.008775140586753e-130
aF-1.1914346093923462e-218
aF-0.12011641082657003
aF0.0
aF-1.0600666159890682e-47
aF0.0
aF0.0
aF-2.588474840396228e-116
aF-3.531167580348573e-158
aF-3.514776401986876e-14
aF0.0
aF-1.8312810514254244e-108
aF-2.5639188958236862e-188
aF-2.5142747753733554e-125
aF-5.039850781610588e-163
aF-858.9934592000002
aF-1.9792878830464143e-153
aF-1.2786682062094318e-12
aF0.0
aF-5.753555099312706e-99
aF0.0
aF2.8494067059184956e-07
aF4.1451981475599025e-32
aF-872.9395200000008
aF-1.5132240869715733e-121
aF-4.164529301244848e-176
aF0.0
aF0.0
aF-4.123006716781582e-41
aF-1.761624690810653e-120
aF0.0
aF-4.513721078623267e-36
aF-7.672957688517318e-125
aF-5.187739375801396e-85
aF214.80625003043798
aF-3.4867624049969015e-277
aF-693.5330203612798
aF-6.851635852982568e-114
aF0.0
aF-1.834798892792059e-08
aF-0.007846377169233355
aF-281.4749767106576
aF0.0
aF0.0
aF-4.109481173084673e-19
aF-8.481914357010359e-117
aF0.0
aF-2.761598015185349e-142
aF-1.538040399661434e-162
aF-3.362984268825347e-35
aF0.0
aF0.0
aF-3.864572823191738e-15
aF-3.519010341678104e-67
aF-6.569398592280535e-104
aF0.4253529586511727
aF1.0703937411631503e-44
aF-1.909646246702508e-49
aF-0.17840596158824504
aF-3.3011383191529022
aF-37.778931862957165
aF0.0
aF-281.47497671065605
aF-5.106529755454022e-251
aF-0.1175934146345486
aF-4.123006716781582e-41
aF-1.0467360552336376e-166
aF0.0
aF-5.964349125473222e-272
aF-2.387057808378135e-49
aF5.962406485138736e-134
aF-4.0318806252884704e-163
aF-3.2739238240362994e-82
aF-1073.7418240020174
aF-1.6096601365317775e-263
aF-8.1045225954707e-16
aF-3.4736262872729785e-48
aF-1.3340373941467205e-160
aF-4.9114928437394875e-194
aF-2.473706901455591e-84
aF-1.6306908684437789e-282
aF-1.3641884886190546e-38
aF-1.1200547917330323e-76
aF-1.928564042148164e-115
aF-1.6355250863025588e-166
aF3.553292395031413e-64
aF-2.131544513467273e-38
aF-2.690387415060278e-35
aF-2.5893182038338404e-254
aF-1.431945195923751e-23
aF-1.2663316555422968e-15
aF-4.925250774549314e-09
aF-0.0020568809674220106
aF-0.07307508186654517
aF-7.308698536898714e-71
aF-2.3262627906009212e-80
aF-1.2109736942316392e-259
aF-2.513458974931145e-15
aF-2.0707798723169822e-116
aF8.594133025788617e-205
aF0.0
aF-3.9661800830665048e-53
aF-346.0327689501725
aF-8.64798025796571e-111
aF0.0
aF0.0
aF-4.110150583476413e-88
aF-2.1807857389482356e-123
aF-4.0978780040511566e-135
aF-2.7711385970315753e-233
aF-1.538040399661434e-162
aF-1.7275150672647097e-57
aF-3.2739238240362994e-82
aF-1.5938705539540512e-197
aF0.0
aF0.0
aF0.0
aF-2.3522160748850474e-146
aF8.702164874309922e-17
aF1.1455561567390009e-23
aF-1.4090702233696475e-51
aF0.0
aF-1.6298942368609793e-75
aF-0.004018012606596203
aF0.0
aF0.0
aF-4.0986695097333906e-273
aF0.0
aF-7.922816251426435
aF-8.844877144395314e-58
aF-9.654436061809613e-169
aF0.0
aF0.0
aF-6.285364742229886e-287
aF-1.761624690810653e-120
aF0.0
aF-7.308698536898714e-71
aF-2.9173990300359767e-102
aF-8.237433754275844e-57
aF-2.580823932803772e-232
aF226.09202575162718
aF-1.8192857076835177e-64
aF-2.7702360131120542e-95
aF-5.718661585276328e-262
aF-2.017382717255399e-09
aF-1.2109736942316392e-259
aF-1.3340373941467205e-160
aF-8000.0
aF-1.567898019209447e-87
aF-6.138366150813855e-125
aF-1.9099573168810152e-118
aF-2.166503176272681e-79
aF-9.840252457850918e-25
aF-2.6395840341955398e-179
aF0.0
aF-0.13937965749081643
aF2.470730631125203e-31
aF0.0
aF-2.1668539616950456e-148
aF0.0
aF0.0
aF-7.008775140586753e-130
aF0.0
aF1.0318252561243485e-25
aF-3.142331601820314e-56
aF-3.610976863627403e-36
aF-2.8797738503846232e-83
aF-8.321747860865911e-261
aF-1.6306908684437789e-282
aF-287.7268055227565
aF-3.497098986511979e-161
aF0.0
aF-1.431945195923751e-23
aF-153.5450808320052
aF-1.784640888926752e-139
aF-3.978585891278296e-06
aF-1.047737641794982e-21
aF0.0
aF-1052.8876754279913
aF-1.7679985822190185e-280
aF0.0
aF0.0
aF-2.4733040147310484e-15
aF0.0
aF-3.646748787544971e-102
aF0.0
aF-4.2037303360316835e-35
aF-1.3292279957849165
aF3.440673224239557e-120
aF-3.407478417984123e-123
aF0.0
aF-4.602094425247536e-30
aF0.0006739986666787663
aF0.0006739986666787663
aF-1.3150339753870954e-19
aF0.0
aF-1.4324117448753066e-161
aF-1.8073689335732625e-20
aF-2.5150939633309023e-263
aF-3.6973865789315817e-72
aF-2.7611482403239124e-73
aF8.824480908874262
aF0.0
aF-2.2677547641754107e-249
aF-1.9786432117848388e-15
aF0.0
aF0.0
aF-0.0006582018410994506
aF0.0
aF-1.891222039731266e-52
aF0.0
aF-2.690387415060278e-35
aF0.0
aF0.0
aF-2.797223537893661e-92
aF-4.1365767771278196e-63
aF0.0
aF0.0
aF0.0
aF-4.2860344287450773e-29
aF-2.815666854266378e-136
aF-7.17068622190009e-215
aF-2.090612775709278e-44
aF0.0
aF-1.1649119385689887e-271
aF-9.049204376545872e-143
aF0.0
aF-556.2614209120964
aF0.0
aF-2.1668539616950456e-148
aF-0.002510840780800599
aF-3.671086351889483e-08
aF-3.331623440995878e-176
aF5.606106910518835e-61
aF-1.5983352577617898e-12
aF-1.0036181891872993e-156
aF-2.5639188958236862e-188
aF-5.9810562866571315e-87
aF0.0
aF-3.6353776955813503e-149
aF-3.1730494704017254
aF-7.499705528574089e-40
aF-0.5626134185128037
aF-6.67495948565144e-07
aF-1.012176135122676e-100
aF0.0
aF-0.02394524282602952
aF-4.39876292709763e-67
aF5.215573635830191e-07
aF-2.707685248164861e-10
aF0.0
aF-6.985782819463442e-108
aF-4.327794172432055e-54
aF-1.2996378896192323e-53
aF0.0
aF-2.6747129447109776e-10
aF-9.93639276920772e-22
aF8.702164874309922e-17
aF-5.623642243179002e-14
aF8.735073610229126e-246
aF-7.214439543652595e-52
aF0.0
aF0.0
aF-1.0600666159890682e-47
aF-1.4911387159968274e-82
aF0.0
aF0.03741444194977423
aF0.0
aF0.0
aF1.0703937411615755e-44
aF-1073.7418240000002
aF-0.07307508186654517
aF-3.407477717106618e-123
aF-3.298942664324077e-110
aF-5.056438452689395e-185
aF1.739188586017522e-170
aF-1.1914346093923462e-218
aF0.0
aF0.0
aF0.0
aF-1.5623355396968883e-43
aF0.0
aF-1.915931469256777e-71
aF-1.3336028865759737e-22
aF-0.0020090065707690694
aF-1.985155524189838e-37
aF-8.263199609878115e-10
aF-8.650797898008005e-249
aF-2.4896115882272848e-59
aF-5.3778035102053995e-258
aF-1.8079578011384695e-158
aF-3.865796646575028e-153
aF-1.1951612957634787e-171
aF-4.185580496821365e-29
aF-2.66486466196573e-107
aF-1.5936109640703655e-128
aF-1.6248135848765518e-122
aF-3.172944066453204e-53
aF0.0
aF0.0
aF-2.131544513467273e-38
aF-2.5893182038338404e-254
aF-2.084093941668913e-91
aF-2.1526605307184854e-104
aF-2.490017131359946e-128
aF-3.2789356077867124e-273
aF-2.195164611705334e-167
aF-1.538040399661434e-162
aF-6.8527519442960955e-183
aF-1.5375394465392058e-24
aF0.0
aF-2.3114016447064746e-105
aF0.0
aF-6.785531485608287e-117
aF-4.799811538287417e-40
aF-5.138525128638972e-157
aF-1073.7418240000002
aF0.0
aF-7.098034416949293e-11
aF-9.87263970066857e-47
aF2.522139171341711e-78
aF0.0
aF-2.131544513467273e-38
aF-2.3346796494766835e-240
aF0.0
aF0.0
aF0.0
aF-2.8887814903134677e-36
aF-4.863314709687395e-128
aF0.0
aF0.0
aF-6.339285465397772e-69
aF-7.926688623106885e-207
aF4.4989137945432014e-14
aF-3.8900181066051323e-59
aF0.16069080712116215
aF-3.634193621478038e-11
aF-3.485626736185063e-139
aF-1.0081510646124889e-40
aF-2.7259819899544563e-123
aF-5.9039196608567345e-68
aF0.0
aF-6.483615459826828e-16
aF0.0
aF-2.216549814654721e-164
aF-8.291746752422503e-101
aF-2.1736318437951413e-101
aF0.0
aF0.0
aF0.0
aF-838.917891898104
aF-3.1028161207175616e-175
aF1.1348735051032171e-164
aF-3.6353776955813503e-149
aF-2.7702360131120542e-95
aF0.0
aF-1.146116960366844e-230
aF-1.953443152612535e-65
aF-7.431571858199107e-112
aF-1.1459293959002452e-161
aF-3.816561744768794e-203
aF-2.3121547335935542e-243
aF0.0
aF-1.5883831155095875e-106
aF5.214812093084534e-07
aF0.0
aF-3.169126500570574
aF-6.668014432879868e-23
aF-3.634193621478038e-11
aF-2.131544513467273e-38
aF-1.9926627326542595e-266
aF-8.052747493714026e-41
aF0.0
aF0.0
aF0.21778071504093846
aF-9.843458557833178e-163
aF5.6439896447365055e-174
aF0.0
aF0.0
aF-1.4508903275162645e-111
aF-0.27875931498163287
aF-4.204415099059542e-104
aF0.0
aF-1.694341847911555e-63
aF-2621.4400000001733
aF-2.131544513467273e-38
aF-1.1718289888397015e-39
aF-1.2181642514250025e-27
aF-2.743508863121369e-98
aF-1.4230290926106389e-117
aF6.279146908094273e-141
aF-1.3451937339448646e-35
aF-2.879304828507649e-14
aF-4.7536897508558615
aF-1.5938705539540512e-197
aF-1.5087513613821964e-237
aF-3.181099121983587
aF4.4989137945432014e-14
aF-8.291746752422503e-101
aF-6.874186655923773e-136
aF-2.8717296448821755e-268
aF-4.693727771050994e-162
aF0.0
aF-2.5462949704181097e-06
aF0.0
aF0.0
aF-3.4867624049969015e-277
aF-0.27875931498163287
aF-4.436271489552759e-11
aF5.214812099416289e-07
aF-2.1668539616950456e-148
aF0.0
aF-2.9174008613170216e-102
aF-1.2663316555422968e-15
aF-5.9039196608567345e-68
aF0.0
aF-5.791490800741983e-143
aF-2.708126314218297e-79
aF-1.7275150672647097e-57
aF-1.1679847981112836e-17
aF-6.8527519442960955e-183
aF0.0
aF0.0
aF-2.1736316606670446e-101
aF-2.490017131359946e-128
aF-8.872543021186616e-11
aF-1.582914569427871e-15
aF-4.171849679533031e-07
aF-0.019156194260823618
aF-3.300017508700563e-248
aF-2.131544513467273e-38
aF-3.767340222509074e-184
aF-8.343699359066062e-07
aF-4.171849679533031e-07
aF-1.997919072202234e-13
aF-1.8613133801376512e-149
aF0.0
aF-4.267529237043116e-23
aF-2.630067950774191e-19
aF-37.780248266603
aF-0.004017345639492252
aF0.0
aF0.02922880074158015
aF-1.0600666159890682e-47
aF-8150.453448847673
aF-4.925250786229155e-09
aF-4.7707021809609924e-203
aF-7.771941366398418e-75
aF-6.0978134990485725e-12
aF-3.8664263621859666e-222
aF-1342.1772800020185
aF-1.721847945639635e-35
aF2.470730631125203e-31
aF0.0
aF-115.29215046134576
aF0.0
aF-0.009578911945801035
aF-2.7076852460608044e-10
aF-2.1133783882291604
aF-2.017382717255399e-09
aF0.0
aF-7.836947798999062e-112
aF-281.47497671065605
aF-9.875856352894189e-185
aF0.0
aF-7.54792484964309e-15
aF0.0
aF-7.008775140586753e-130
aF-3.7432728673904093e-209
aF4.0908884390816696e-13
aF-4.096667214387683e-66
aF-1.8309827950620335e-39
aF0.0
aF-0.019156194260823618
aF-524.291831238849
aF5.214812099416289e-07
aF-6.352497677404349e-38
aF-2.521728396569249e-09
aF-1.0707424912962649e-182
aF-0.004017345110647478
aF-4.0980019692366674e-204
aF-6.352497677404349e-38
aF-2.2677547641754107e-249
aF0.0
aF-281.47497671065605
aF-2.0844334283542506e-160
aF-1.3774783565108624e-35
aF0.4253529586511733
aF-7.991676288808949e-13
aF0.0
aF-5.809605995369971e-96
aF-2.1736316606670446e-101
aF-0.27875931990688346
aF-2.1876070151035784e-76
aF0.0
aF5.215238839581007e-07
aF-6.401042522480754e-66
aF0.0
aF-45.035996273704704
aF-2621.439297567013
aF-4.1855804962756786e-29
aF0.0
aF-2.5893182038338404e-254
aF-1.9792878830464143e-153
aF-4.204415099059542e-104
aF-1.1987043769150981e-55
aF0.0
aF-3.092637317260022e-153
aF0.0
aF0.0006739986666787663
aF-5.081998142456012e-38
aF-1.8079578011384695e-158
aF-0.22198119675601652
aF-1310.7210284413286
aF0.0
aF-5.288447754441402e-10
aF-3.143867454163628e-263
aF0.0
aF0.0
aF-1.7542553231663846e-19
aF-1.7555597020139832e-29
aF-1.1128994102615267e-101
aF-1.0231011950113436e-81
aF-4.692198018002948e-24
aF-688.1252554851702
aF-3.0485825687513094e-12
aF-6.547847648072599e-82
aF-1.4846494292127037e-265
aF-2.673635536417676e-129
aF-2.0704426093536492e-47
aF-1.2582417958928166e-40
aF-1.9349115288808465e-137
aF-524.2879991656303
aF-3.519010341678104e-67
aF-4.370247342113834e-23
aF2.0313458295171214e-191
aF-2.388224511576008e-256
aF-2.5575857864976783e-87
aF-2.9073548971824305e-11
aF0.0
aF0.0
aF-6.285364742229886e-287
aF8.536448785075868e-92
aF-2.131544513467273e-38
aF-2.6218670172081173e-66
aF-2.539182286896402e-191
aF-0.003213876088517982
aF-0.003213876088517982
aF-8.563149929305202e-45
aF0.0
aF5.6439896447365055e-174
aF-1.2068045077262015e-168
aF-2.084093941668913e-91
aF0.0
aF-5.3778035102053995e-258
aF-6.285364742229886e-287
aF-2.673200087794702e-60
aF4.4989137945432014e-14
aF-1.8036098859131487e-52
aF0.0
aF-1.0034547322940462e-87
aF-4.723905099806754e-137
aF-2.1732776464790207e-32
aF-5.255905246912862e-212
aF-2.9279547316614796e-262
aF-2.098518788983496e-273
aF3.474737311370567e-52
aF-2.5217284025493273e-09
aF0.0
aF-4.217566082189232e-57
aF0.0
aF-1.947034872797577e-43
aF-1.985155524189838e-37
aF0.0
aF-2.664433949982607e-66
aF0.0
aF-2.673635536417676e-129
aF-2.0048213477418625e-103
aF-4.707641458830152e-46
aF-3.2665824620457467e-44
aF0.0
aF0.0
aF-1.4185267875734204e-13
aF-2.0775954342991487e-138
aF-1.790223639607446e-92
aF0.0
aF0.0
aF0.0
aF0.0
aF-6.080133643928723e-197
aF-1.651727316994414e-232
aF-1.2582642436765637e-40
aF-2.131544513467273e-38
aF0.0
aF-2.6046931378436986e-22
aF-4.018654021180335e-141
aF-2.449840655014761e-87
aF0.0
aF-1.3207363278391661e-25
aF0.0
aF-1.5985956172052244e-81
aF-2.1736316606670446e-101
aF-5.445404750778313e-70
aF4.413240584416628e-89
aF-2.613691655343082e-113
aF-1.0398796744099787e-122
aF-73.7869763315632
aF0.0
aF-4.925250774549314e-09
aF-2.449840655014761e-87
aF0.0
aF-9.940972186756032e-229
aF-7.308698536898714e-71
aF-1.2422167908467455e-90
aF-1.750085612082863e-76
aF-5.964349125473222e-272
aF-4.0986695097333906e-273
aF-0.08920298079412252
aF0.0
aF-5.3778035102053995e-258
aF0.0
aF-0.07307508186654517
aF-4.427044752441308e-42
aF5.4301938498065465e-255
aF0.0
aF-6.361185999616243e-160
aF-2.1736316606670446e-101
aF0.0
aF-1.443302022846954e-48
aF5.6439896447365055e-174
aF-2621.44
aF0.0
aF0.0
aF-7.598929233886554e-128
aF-1.8312810514254244e-108
aF-2.1736316606670446e-101
aF2.0313458295171214e-191
aF-1.4230290926106389e-117
aF-1.3207363278391661e-25
aF-1.1914346093923462e-218
aF-4.436271510593301e-11
aF-0.27875931498163287
aF-6.297761573024588e-25
aF0.0
aF-3.3098004809876885e-132
aF-2.4579038205177167e-109
aF-4.92765805007019e-216
aF-4.602094425247536e-30
aF-2.6046931378436986e-22
aF-2.5643365431811327e-257
aF-3.0921336268194887e-84
aF0.0015739832601482102
aF8.702164874309922e-17
aF0.0
aF-2.5880532616920616e-47
aF-5.3778035102053995e-258
aF5.962406485138736e-134
aF-9.654436061809613e-169
aF-4.848939923865189e-244
aF-0.0013164036458569654
aF-2.531264748020317e-238
aF-1.1679847981112836e-17
aF-3.300017508700563e-248
aF-2.5138652814562514e-56
aF0.0
aF-3.2875849384677384e-19
aF0.0
aF-8.483296011134877e-186
aF0.0
aF0.0
aF-8.184809560090748e-82
aF0.0
aF-2.9279547316614796e-262
aF-7.214439543652595e-52
aF0.0
aF-0.21076252998176104
aF0.0
aF0.0
aF0.0
aF1.0703937411631503e-44
aF0.0
aF-4.071159039754396e-160
aF-1.2070010891057571e-237
aF-6.829159028060695e-92
aF0.0
aF0.0
aF0.0
aF-6.270570637641496e-19
aF-2.6561225604103146e-85
aF-0.02394524282602952
aF-2.673635536417676e-129
aF-7.796251209120016e-28
aF-0.004017345110647478
aF-1.8312810514254244e-108
aF-2621.44
aF-3.385159592691302e-79
aF-2370.0828766345703
aF-5.7724917868483475e-121
aF0.0
aF-7.598929233886554e-128
aF-2.9279547316614796e-262
aF-2.1736316606670446e-101
aF7.948892632579646e-22
aF-6.463401214262218e-63
aF-3.885339032943423e-06
aF-4.588491743610528e-146
aF0.0
aF-1.7275150672647097e-57
aF-6.829159028060695e-92
aF-5.3778035102053995e-258
aF-7.991676288808949e-13
aF-1.8918382278803007e-190
aF-4.427044752441308e-42
aF-7.308698536898714e-71
aF-7.850212180393532e-210
aF0.0
aF-5.667506586893075e-57
aF-2.964760347899788e-74
aF-2.5630838051613814e-50
aF0.0
aF-1.5881244193518706e-37
aF1.7087896287367298e-07
aF0.0
aF0.0
aF-7.308698536898714e-71
aF-2.024681989589615e-169
aF-9.138849773902366e-209
aF-1.1382378618136097e-48
aF-1.687301239591611e-126
aF-1349.501229719597
aF0.0
aF34.06377961418012
aF-343.59738315853696
aF-56.34503018333273
aF0.0
aF1.430881262283926e-13
aF69.17529059680889
aF-185.05623934342034
aF-1.2676506002800432
aF0.0
aF-1.947034872797577e-43
aF-528.801266727418
aF0.0
aF-0.11417981541647682
aF-1.913626293225527e-18
aF0.0
aF201.58335660859694
aF-391.7808122563448
aF502.2534406197566
aF-4.522219867462558e-07
aF-335.54438582018236
aF-1.4779078080843835e-22
aF-203.40822736544368
aF-9.62119740044293e-78
aF-0.0016379312340774627
aF-872.9395199999999
aF-3.83985399817439e-68
aF-0.003213876088517982
aF-1.0703937411631503e-44
aF7.427640235712351
aF-1.5134705823042405e-190
aF0.0
aF501.5194174099082
aF-16.487717099705883
aF-416.9885976065054
aF-1.7425295587338458e-70
aF-120.15375883651629
aF46.11686018427388
aF0.0
aF-5.948067633911145e-28
aF-9.840252457850918e-25
aF0.0
aF-6.444296958485204e-179
aF-2.743065442838282e-57
aF-6.755134291514446e-42
aF-536.8709120000001
aF4.096828067561386e-23
aF-1.8830565835320607e-46
aF-274.734694576735
aF1.1348735051032171e-164
aF-198.3180071094569
aF5.39424453874364e-14
aF-3.729782456470988e-77
aF-30.82062419249773
aF-1.9579108963547567e-247
aF4.3934705022489794e-14
aF44.071956591925314
aF-5.322456408346751e-13
aF0.0007022068744359037
aF2.2169979232972212e-190
aF-24.067236825897936
aF-9.306292184886129e-08
aF-2.6819983966505364e-82
aF1.0154578171359741e-42
aF0.0
aF-3.4867624049969015e-277
aF-268.43545600000004
aF380.0938429434747
aF-1.800565322724201e-16
aF-21.395397379458892
aF-2.327020721469426e-218
aF-1.9786432117848388e-15
aF2.18725071370853e-07
aF-20.163701545267323
aF-6.47880075557281e-06
aF0.0
aF0.0
aF2.6712139031916255e-50
aF16.234132143186077
aF-5.505897597924246e-26
aF-570.6085439264255
aF-437.8583092465854
aF-0.5767810231038444
aF-5.791490800741983e-143
aF-390.1406653614054
aF75.60302311703856
aF-2.5795631403108713e-25
aF-1.6549002404938442e-132
aF-4.217566082189232e-57
aF-6.309676062963709
aF6.156571112156052e-37
aF1.1407959039037298e-86
aF-2.682872231447841e-220
aF0.0
aF-0.002806469031175981
aF97.16534599516274
aF0.0
aF-266.14947601098777
aF-347.6869605413129
aF-1.4095293193163728e-189
aF-5.578287088314705e-21
aF-2.7463663581701497e-83
aF-15.761604741384417
aF1.951092843947497e-12
aF3.381084999268265e-26
aF-1.146116061080958e-230
aF-3.5091403403810445e-12
aF1.77266229209636e-26
aF0.6805647338405985
aF-9.875856352894189e-185
aF0.0
aF0.0
aF-3.492891409731721e-108
aF2.23080111115844e-139
aF-8.535058474086232e-23
aF0.0
aF-1.7164789738563434e-82
aF9.244100769003097e-37
aF-679.4086517051267
aF10.314479572726286
aF-3.414023389634493e-23
aF-6.739995035133442e-32
aF-4.260743066709899e-261
aF0.0009476476656508755
aF-5.856635542179171e-68
aF-1.2691028959952424
aF-144.1187581774679
aF-6.463401214262218e-63
aF1.206607958363384e-99
aF0.0
aF-1.513717117789549e-259
aF-1.7170382281266183e-220
aF8.610396332491876e-105
aF0.4067488762334944
aF-3.4436689161002167e-84
aF4.5877444269385e-77
aF-3.4867624049969015e-277
aF-8.502700650276252e-32
aF90.5721963376528
aF-1.5309010345804215e-18
aF-0.0006582018229284827
aF1.9765845049542082e-31
aF-4.6339473605131814e-212
aF2.23080111115844e-139
aF-8.931043572091298e-55
aF-8.26316330161688e-11
aF-6.340567046612671e-95
aF-1.1866437717961148e-186
aF-78.44620354902797
aF7.746749634260735e-10
aF1.7316245235206105
aF-6.110867989855919e-50
aF1.5765937581418586e-147
aF-1.2221735978896053e-49
aF-8.535058474086232e-23
aF-1.3430520249494373e-273
aF6.126186448931585
aF-1.7170382281266183e-220
aF-5.138525128638972e-157
aF0.0
aF-5.9434257364156504e-24
aF-2.434190041705111e-112
aF219.90232555520006
aF-25.831219411857866
aF-759.0935728986609
aF-6.396465853328327e-220
aF-0.0010702207374764865
aF1.1152188929593986e-70
aF383.5402526695644
aF-5.280463913612922e-12
aF2.2795248993233012e-07
aF-2.946300067690922e-168
aF6.941067887969689e-10
aF83.0103490617667
aF-2.4494446965476e-46
aF-1.1384232740885112e-117
aF-551.2657588878008
aF-3.278401575389334e-204
aF-6.297761573024588e-25
aF-4.723905099806754e-137
aF-273.51258894970044
aF0.0
aF-1.8192857062560835e-64
aF-2.3307347773058545e-142
aF-3.9633443115534426e-207
aF-5.656674024063942e-212
aF-5.173248223440069e-270
aF10.609146135809684
aF8.153225794301683e-119
aF0.0
aF-7.8726012599963e-06
aF-2.6561225604103146e-85
aF-10.951580903873381
aF-8.371160993643156e-29
aF0.00047329420170857717
aF-210.087626589395
aF-1.8674395246304355e-171
aF-3.610976862891835e-36
aF-167.7721600010086
aF293.3497022904117
aF2.6027578538259612e-12
aF-2.90830215646508e-149
aF-144.11518807585588
aF0.0
aF-5.300907578791294e-48
aF0.0
aF-8.462894731932179e-80
aF-0.001606938044258991
aF2.16044926377465e-264
aF-47.74171537891283
aF-9.989595361011186e-13
aF-872.9395200000008
aF-1.2101864759521845e-11
aF-2.1955221911516802e-236
aF-2.0657999024695287e-10
aF1.951092843947497e-12
aF0.0
aF-63.914151268695946
aF-6.783328656488821e-07
aF-2.605120661591562e-119
aF-0.0005398895650399786
aF2.6964338284413353e-73
aF-246.384263344406
aF0.0
aF-5.499349324739018e-136
aF-1.0901467692253167e-05
aF-1.5646370339889275e-119
aF-296.06617745194774
aF293.25687543873084
aF-335.55351572236106
aF1.8172990438149583
aF-3.142331601820314e-56
aF1.206607958363384e-99
aF2.9266392659212454e-12
aF-3.634193621478038e-11
aF-1428.1150539704395
aF1.6759759912428262e-13
aF-506.1560743001284
aF40.9506904876902
aF-2.964760347899788e-74
aF-2.90830215646508e-149
aF-3.634193621478038e-11
aF-1.29537442116679e-31
aF-54.04319552846762
aF76.83068993578796
aF-4.723905099806754e-137
aF2.16044926377465e-264
aF3.0232992638763225e-137
aF-1.4095293193163728e-189
aF-291.2103779805194
aF0.0
aF-3.122765662225949e-150
aF-7.696957920354343e-78
aF0.0
aF0.0
aF0.0
aF0.0
aF-3.316536452058394e-21
aF251.12845578490322
aF2.3099562340945323
aF-4.123678330405097e-110
aF-4.4009128753543157e-274
aF-3.061802069160843e-18
aF-1.582914569427871e-15
aF-1.2420144738405697e-21
aF0.0
aF-8.37116099364273e-29
aF-729.8177523249718
aF-0.002008672555323739
aF-0.06968983120803356
aF2.5546755962044466e-28
aF4.529314776591393e-127
aF-3.2457141582836593e-69
aF0.0005265614573438264
aF-605.0258223550861
aF-1.5576278982380615e-43
aF-1.4894894552681694
aF0.0
aF-36.02879803748196
aF-3.591228066272723e-29
aF0.0
aF-0.035681192386966064
aF0.0
aF0.0
aF0.05115255730658157
aF-1062.6532586662568
aF-1.3384281141203311e-182
aF0.0
aF148.45944647289758
aF-32.685185694394235
aF-0.00196181584756364
aF-1.971063220028076e-216
aF-1.0977303244447999e-72
aF-3.9614081257132177
aF3.553292395031413e-64
aF-1.1569045397613125e-89
aF-5.173248223440069e-270
aF-82.67812008662517
aF-1.431945195923751e-23
aF9.008899939832688
aF-129.87986407385512
aF0.0
aF-1.5883831155095875e-106
aF0.0
aF0.0
aF0.31901471898837996
aF-0.13937965749081643
aF-1.1455575790578463e-51
aF0.0
aF-572.5089278833086
aF-0.035681192317649005
aF-4.7714793003785775e-272
aF-2.721477828630901e-07
aF-1.3485392389056236e-23
aF-9.936128127373971e-50
aF219.90232555419084
aF-2.077257061301542e-69
aF1.7603678025223979
aF-2.6227212603114672e-204
aF7.450589847540746e-24
aF-2.017382717255399e-09
aF1.6391548395713058e-40
aF-5.924316122770536e-159
aF0.8307674973655728
aF-1.7167585782185263e-151
aF-27.238057815371242
aF-6.985782819463542e-108
aF-1418.0110683867795
aF-7.523173185998683e-21
aF316.65934879948793
aF-151.57750386768035
aF-2.326265678881322e-108
aF-3.301840819710749e-26
aF-5.1056980671704527e-182
aF-4.123006716781582e-41
aF-5.4275410738640294e-48
aF8.851952582081916e-10
aF0.0
aF4.4989137945432014e-14
aF-90.0735352079324
aF-2.2636534171522332e-15
aF-6.668014432879868e-23
aF0.0
aF-4.8280043564230286e-238
aF-1.0195800890305587e-18
aF0.0
aF-1.3865623944290412e-107
aF-0.1859324630927492
aF1.2871495612744905e-13
aF403.5665757296859
aF-1.4095293193163728e-189
aF8.938187938399508e-07
aF-1.3870124348815836e-217
aF-0.0008034690221291844
aF-3.5214175212360855e-24
aF-2.6819983966505364e-82
aF-7.564836879603474
aF-6.318489408427885e-47
aF-6.985782819463442e-108
aF1.9834130752753804e-122
aF-123.92261994342388
aF-17.179869184000122
aF-0.9091095149423349
aF-416.64803549094285
aF-171.79869184000003
aF-1.4000684896662904e-76
aF-450.19577417051516
aF4.529314776591393e-127
aF-190.3091318104843
aF2.228117095923845e-86
aF-1005.3348857854102
aF0.0
aF-36.031262638663975
aF-1422.9360272638837
aF-6.138366150813855e-125
aF0.0
aF-6.653070510443446e-13
aF-1.6999184386626016e-85
aF87.81942244619846
aF0.0
aF-1.140885540206206
aF-75.46884150268349
aF-6.799341122790045e-06
aF-2.1955221911516802e-236
aF-9.551074456811412e-24
aF-245.5813007007094
aF-632.733549746695
aF-1.2145993557288155e-07
aF-6.850528449027691e-73
aF-60.2358845192687
aF0.0
aF-222.2516343478025
aF-1.571165800910157e-56
aF-0.001171752076402107
aF-61.99235628930552
aF-8.676443372880366e-133
aF-56.29499534213121
aF-1.750085612082863e-76
aF7.868156372389769e-36
aF3.4764050059784815
aF-157.09387265052243
aF-1.087947800744065e-85
aF-476.3579605959775
aF446.7216090915232
aF-6.000977364825708e-66
aF-7.16951834939145e-146
aF0.0
aF-6.985782819463442e-108
aF0.0
aF-0.0013754272759459534
aF-5.692884002215511e-23
aF0.0
aF-2.974037510112219e-55
aF-191.9313511593453
aF-2.1639104443693422e-122
aF-2.1561786482025715e-10
aF-4.4009128753543157e-274
aF1.0796969170404436e-57
aF-2.084093941668913e-91
aF-1.1569045397613125e-89
aF-1.2940266308460308e-47
aF9.244100769003097e-37
aF0.0
aF-524.2149249181335
aF-1.9786432117848388e-15
aF-178.970952502429
aF8.343812927616459e-07
aF-144.11518807585588
aF-1.0985465432680599e-83
aF-6.442197994971221e-41
aF-2.613691655343082e-113
aF0.0
aF-8.18574268270861
aF-1.5309010345804215e-18
aF-2.026207080897045e-49
aF-2.1179299395011804e-91
aF9.244100769003097e-37
aF-2.1893341591669257e-31
aF0.6618492036612251
aF-0.0020568806966515087
aF-4.864106915142979e-197
aF-15.996785876420002
aF-447.69292085363224
aF1.6759161904211597e-13
aF-396.8538181538494
aF-3.082994025277639e-200
aF-1.6357915037510397e-235
aF-2.9053392160761784e-07
aF-1.6306908684437789e-282
aF-1.168366795494703e-183
aF-8.764393635646175e-16
aF-1.94064761537589e-21
aF-0.001606938044258991
aF-3.377567102387472e-42
aF-1.9807040628566088
aF0.0
aF-3.6707933948884223e-146
aF-0.0005744803521273822
aF-76.48422674029352
aF-6.360149968472024e-91
aF0.0
aF0.0
aF-577.7831010927628
aF-2.473706901455591e-84
aF-47.991729568684676
aF181.95198519078684
aF-5.624558301532467e-83
aF1.8572854610238232e-25
aF1.5085648652240133e-125
aF3.1914916345602415e-87
aF69.17529027641083
aF-3.122765662225949e-150
aF1.989941086741734e-144
aF-144.11518807585588
aF-72.05759403792794
aF0.0
aF-4.662222281988545e-49
aF-5.1591262806217427e-26
aF199.3334250992301
aF-428.81333661038786
aF5.71494405205873e-14
aF-165.64402758758678
aF-4.267529237043116e-23
aF2.936768408976215e-11
aF365.7689349658939
aF-4.925250774549314e-09
aF-2.6478403847901507e-132
aF-1.0057500615638064e-56
aF-6.985782819463442e-108
aF-3.9614081257102924
aF-4.937928176447094e-185
aF-19.109148364053915
aF0.0
aF1.338210127607114e-113
aF-1.2731474852090548e-06
aF-23.888498066036412
aF-2.6561225604103146e-85
aF-9.684646181028696e-150
aF-125.9855337901942
aF-5.173248223440069e-270
aF-1.9406500248777286e-49
aF-9.437980094177315e-153
aF2.23080111115844e-139
aF-9.900870564097079e-16
aF0.0
aF-1342.17728
aF-0.0002632807291713931
aF0.0
aF4.529314776591393e-127
aF-1310.7176842014171
aF811.7780173772686
aF-508.6141942057905
aF0.0
aF-817.4569343001631
aF-1.9660052470652875e-68
aF1.8012745736721131e-264
aF-0.00029948182943245944
aF-3.278401575389334e-204
aF-94.07842857799571
aF-1734.8654580655632
aF3.045607274987862e-137
aF0.0
aF-0.001606938044258991
aF-8.339411458514553e-18
aF2.23080111115844e-139
aF-7.87348430183117e-94
aF-1.651727316994414e-232
aF-2.017382717255399e-09
aF2.8477947638548768e-11
aF-433.1675261166921
aF-95.21815859132464
aF-694.3521825684498
aF4.4989137945432014e-14
aF0.0
aF-0.34848336138420394
aF-751.1230823366003
aF175.92186044416005
aF-0.4248773076904498
aF5.860889650313116e-14
aF-2.4024053852175093e-24
aF-1.1569045397613125e-89
aF3.953169009913157e-31
aF-3.0655344283583883
aF0.0
aF-1.4983804711438727e-55
aF-1.4744442113969273e-83
aF-1.0086913586276995e-09
aF4.4989137945432014e-14
aF-61.35522344716894
aF-0.10704357695294706
aF-8.992858894957282e-237
aF-0.1701411834604693
aF-93.73116654899253
aF0.0
aF-4.573439174006771e-124
aF226.09202575162698
aF-52.57897579126645
aF0.0
aF-1677.7232455045573
aF-1.1495137465883277e-114
aF-1.5974078624928367e-71
aF-122.87197253549655
aF-1.473324334881355e-29
aF0.0
aF-1.7210799412289343e-14
aF-3.122765662225949e-150
aF-2.5146874582186007e-222
aF0.0
aF-7.551613988644466e-222
aF-3.830990137805008e-18
aF0.0
aF-1.1569045397613125e-89
aF-2117.688854040163
aF-1.5853667193074163
aF-6.464454064429079e-132
aF-6.588881895243501e-16
aF8.687902978752289e-07
aF-752.8810477824227
aF6.1897001964269025
aF-2.024022533073109e-31
aF-3.407477717106618e-123
aF-1.699641577013657e-16
aF-4.937928176447094e-185
aF-4.642849048052046e-112
aF0.0
aF-1.8491213157651796e-105
aF-2.410705052685205e-115
aF0.0
aF0.0
aF1.4707828986829823e-13
aF0.0
aF-3.214923216944268e-141
aF0.0
aF75.27507436048721
aF0.0
aF0.0
aF-3.278401575389334e-204
aF-1.8869812124107727e-15
aF-6.613790678413312e-217
aF-5.173248223440069e-270
aF-1.0420469708344565e-91
aF-7.254451637581322e-112
aF-1.6209038648859048e-16
aF-6.985782819463442e-108
aF-3.767340222509074e-184
aF-1.7170382281266183e-220
aF-4.559921190384148e-240
aF-3.256927231803517e-160
aF-5.494522331795984e-221
aF0.0
aF0.0
aF-6.052193439315289e-10
aF0.0
aF-167.7712385174479
aF-5.897776845587709e-84
aF-2.4286819790036796e-09
aF-1.9043143078970176e-262
aF-3.384606560206076e-11
aF1.951092843947497e-12
aF-1.3421789464429961e-25
aF-93.8127017536508
aF-4.612618339617612e-25
aF143.88014878705144
aF-5.792434200641477e-212
aF-3.530021831243591e-48
aF-0.0013164036458569654
aF321.30176919458984
aF-349.77085580066097
aF-168.88498602646274
aF1.1187071843154306e-23
aF-5.869452010852137e-48
aF1.4309867990416785e-36
aF0.0
aF0.0
aF-5.887427968977683e-253
aF381.84311344021455
aF1.2056810051655034
aF-1.7162015458603299e-41
aF-1.191048027587237e-108
aF-138.2326866842075
aF-0.00029246272405513617
aF-0.05708990770823841
aF-9.875856352894189e-185
aF-0.0008227522785533407
aF2.1710164295456116e-48
aF-5.359499032039186e-124
aF-1169.8309270955924
aF-306.17468738503544
aF-7.922816251426435
aF-4.9114928437394875e-194
aF6.60583321647263e-164
aF625.6444893279063
aF-2.0370359763344876e-06
aF-4.163851034321453e-107
aF0.5804207227359302
aF-1.1495137465883277e-114
aF-723.2013150510184
aF-99.82740029613578
aF-2.7578261315509986e-20
aF0.0042753088828168095
aF-1.3340373941467205e-160
aF11.632568969781712
aF-2.076918743413932
aF-1.140885540206206
aF5.006023056955823e-50
aF3.0232992638763225e-137
aF-3.705950434874735e-74
aF0.0
aF-1.992013705087957e-128
aF0.0
aF-2.962158061385268e-159
aF1.0589636549447219e-63
aF405.4822181200572
aF-289.7794857613394
aF-144.11518807585588
aF0.0
aF0.0
aF-2.70768861001816e-38
aF1.2461512460483593
aF-6.985782819463442e-108
aF-3.5965576998180192e-168
aF4.529314776591393e-127
aF-2.3359695962225673e-18
aF-914.9527054005314
aF0.0
aF-2.163894399439243e-26
aF-5.656674024063942e-212
aF1.1335080683720816e-111
aF-2.131544513467273e-38
aF0.0
aF-1898.2843094704251
aF0.0
aF-7.478902321053658e-46
aF-144.43263512439566
aF-165.15071999994683
aF-2.1533618993997148e-242
aF-5.644909017562389e-243
aF-0.09282685188888366
aF-1.9450090533025661e-59
aF-2206.807658709178
aF0.0
aF-653.9388278754477
aF3.663835130056723
aF-43.23455642275677
aF-4.427044752441308e-42
aF-804.3854455202833
aF0.0
aF2.282013468907963
aF-21.03844815637433
aF-5.840234494174869e-18
aF-1.2683139283135447e-17
aF-0.2304081730445715
aF4.613779235380669
aF2.506843185284774e-241
aF-7.1931153996360385e-168
aF-5.376927640214435e-189
aF1.739188586017522e-170
aF-1168.2776789090806
aF-4.0305674067357365e-25
aF-1.810228577845169
aF0.0
aF-70.42969401056448
aF-1.0985465432680599e-82
aF0.0
aF-341.5677611603825
aF-48.8139408633921
aF-553.1110373964461
aF-7.145998709385579e-124
aF-1.23536531559638e-31
aF-6.463401214262218e-63
aF-23.058430092133904
aF-3.2345437055558367e-06
aF10.57725595172521
aF1.0693336745471582e-44
aF-1.4095293193163728e-189
aF1.1455561567390009e-23
aF0.0
aF-6.985782819463442e-108
aF-3.4070247856289635e-123
aF245.81965737473575
aF-2.1134248254470316e-07
aF-1.0076417682300699e-25
aF2.9266392659212454e-12
aF-324.4565854227259
aF-3.889389377710566e-18
aF-1.6885108773491897
aF0.0
aF-2.3644126358930832e-121
aF-419.4994158323187
aF-118.30148849261793
aF220.1790430275464
aF-393.38070223901656
aF-39.728449644534194
aF97.2557662532834
aF-49.53765891783229
aF379.75740713518985
aF-872.3720991531958
aF-624.8456347684071
aF-28.487155851917247
aF2.8182727690540554e-11
aF0.7441619895698878
aF-47.548267095004604
aF-9.54823123351254e-50
aF-1.4602188199846512e-86
aF323.59318397620046
aF22.209188801332722
aF1225.1857960126463
aF270.2434483496262
aF-7.957171782554557e-07
aF-4.151543694495244e-223
aF-1.0496694450903168e-09
aF-6.138366150817294e-125
aF-7.533453289641265e-116
aF181.8517510841255
aF-108.31932508586495
aF-8.903195282092214e-102
aF-2.1784101396988658e-60
aF0.0
aF-11.801208380872575
aF8.702164874309922e-17
aF4.568244323217581e-11
aF-2621.440000000036
aF323.59318397620046
aF4.1906224947664633e-82
aF827.8596128981774
aF-2.4078045838557993e-62
aF0.0
aF135.88836773930868
aF2.953953883689359
aF-39.72844964452745
aF3.1021671257466172
aF8.702164874309922e-17
aF229.0707957359644
aF720.4041941299063
aF53.699841076095254
aF-605.9579466051699
aF-2.0572157504587717e-72
aF-179.62386492916298
aF0.4262738292624458
aF-0.7922817920166326
aF-7.301094099923256e-87
aF-0.9855209560096918
aF-2.426204669369516e-90
aF-136.19657411581366
aF-976.816714673354
aF-1.9786432117848388e-15
aF-872.3720991531958
aF228.89368736888338
aF-1.0167307864367305e-175
aF-2.9611932607664338e-21
aF-39.7284496445342
aF-9.444732965868631
aF-7.886352026499608
aF211.29319655818531
aF-1073.7418240000363
aF-3.4181359610993413e-76
aF0.6380294379767454
aF-0.3484491437270411
aF-6.831384069210042e-230
aF2.0306842025300504e-53
aF133.19152152695338
aF-87.61653811629864
aF3.035342927063876
aF217.60510724318155
aF220.1790430275464
aF189.37586192537688
aF-56.38266969212107
aF-2.1784101396988658e-60
aF-0.04460248504354848
aF561.667868256565
aF907.4314632440928
aF914.1224504735455
aF-7.687697232696029e-25
aF-1.0496694450903168e-09
aF-17.376369071505074
aF-6.338253001141148
aF133.98865588980357
aF1.1519095401538493e-83
aF9.829950469359677
aF-9.444732965823201
aF-525.7885016766502
aF4.817814207659832
aF1093.9312506136819
aF-616.2116903322747
aF-5.729790060109307
aF-3.8411003103764086e-178
aF-1.0286078752293859e-72
aF-164.13078379828826
aF-605.4630399307201
aF97.2557662532834
aF-1.038459371706966
aF8.702164874309922e-17
aF-234.2793471294743
aF366.31072156868913
aF1.1519095401538493e-83
aF836.4495481410055
aF-872.3720991531958
aF-642.1044264648633
aF-524.3261331851807
aF539.9231900778117
aF1178.2381594053097
aF-511.5977819435078
aF-790.4045640699266
aF-5.972978124590006
aF-6.851635852982568e-114
aF-8.649388963251947e-180
aF731.2037804219747
aF-1.8951636868905176e-21
aF-715.7025042581887
aF321.46599916943734
aF0.0
aF384.1111625476832
aF0.0
aF-1.3940236161992482e-70
aF-438.80475417120397
aF-11.605687868315849
aF97.2557662532834
aF-0.0020090063032981013
aF294.2220184309042
aF-671.4650875267844
aF97.2557662532834
aF-7.770675568902921e-06
aF-3.337479743626425e-07
aF362.78124120608743
aF2.2642885489652004e-58
aF-0.009807971461541692
aF-1.9734375852356222e-269
aF2.7574822549995637
aF-471.1110595967192
aF2.1625916415508155
aF3.321234955595916e-223
aF3.035342927063876
aF1.0359916851350622e-10
aF-1.3248691305887197e-06
aF0.0
aF-0.10454813602955823
aF6.615053155078075
aF-872.3720991531958
aF-1.8425496996418587
aF3.035342927063876
aF-778.9438584553769
aF-1.947034872797577e-43
aF10.609146136666354
aF3.2635605987763744e-49
aF-278.99251016001546
aF-1.7564177615919228e-236
aF1.1519095401538493e-83
aF-872.3720991531958
aF220.1790430275464
aF0.0
aF-9.893216058924194e-16
aF1.1981974687090167
aF-14.68006399995463
aF-687.2472917893504
aF-24.067236408667927
aF249.02281949838326
aF-87.61653811629864
aF1.0589636549447219e-63
aF1.7316293801639013
aF-2.783082132874989e-44
aF-884.6198759046223
aF97.2557662532834
aF-0.004017345110647478
aF-429.1149357942542
aF1186.8535157992094
aF97.2557662532834
aF-39.72844964452745
aF-655.4296898299767
aF-1590.560521188058
aF3.255826629615409e-12
aF-5.9039196608567345e-68
aF-2.077257061301542e-69
aF0.0
aF-1.0286078752293859e-72
aF479.97028651329435
aF-534.9391385769911
aF-1814.4849363782844
aF1093.7741472163668
aF-429.4967296000001
aF-3.433146051230991e-137
aF-722.8114024170992
aF-327.98199086679176
aF-605.3331132091927
aF-0.8271273165799723
aF6.954488468732866e-33
aF-3.013381315856506e-115
aF-1.371088090207264e-16
aF-605.3331132091927
aF-1388.5118133860344
aF-11.801208380872575
aF41.01485624752104
aF142.50837678468855
aF-550.2386765543125
aF0.005649391561848928
aF-557.4309254449628
aF194.70391694158104
aF81.97983910169629
aF1178.7780420091633
aF-3.4186927554089784e-145
aF0.0
aF-8.992858894957282e-237
aF0.0
aF-20.326435599931706
aF-271.2382206858848
aF-7.886352026499608
aF-241.44785294251065
aF0.0
aF-4.5657233418319246e-17
aF-1.9786432117848388e-15
aF140.53157801520427
aF4.190622494766407e-82
aF-2.4027997062756226e-121
aF68.46949063598628
aF-1.395912209520515e-10
aF-6.541291678777804e-55
aF-511.5977819435078
aF5.3020600069592984e-186
aF-3.222896982552447e-29
aF-9.713344461787526e-06
aF-24.067236408667927
aF194.4108734394853
aF-1304.5207318794037
aF-1045.1833805408548
aF965.1055649483676
aF-111.14349962542015
aF-146.58181211451108
aF-1.4186504680303613e-11
aF-861.7728802161544
aF5.71494405205873e-14
aF-2621.44
aF87.99591981500744
aF0.5674208447842528
aF207.28979784997688
aF256.1798804517416
aF323.59318397620046
aF-0.028921278926481768
aF-1.7170382281266183e-220
aF-1182.500401641799
aF-1.3597132616109254e-16
aF129.29167462943792
aF-25.46106185765094
aF1.206607958363384e-99
aF836.4495481410055
aF0.7560949094759233
aF-1.891222039731266e-52
aF-47.548267095004604
aF0.0
aF6.615053155078075
aF-0.1220023803867805
aF-1.038459371706966
aF-18.23895256704621
aF119.2896046532253
aF-11.80591620717142
aF-11.181463284129787
aF-3.1521604957115613e-09
aF-268.3159822502158
aF-1.1517272163792502e-14
aF-1.4396524142538244e-14
aF836.4495481410055
aF-194.15000044276456
aF0.0
aF-39.728450722715436
aF3.3964328234477995e-58
aF5.421021523723977e-11
aF-127.90082390251573
aF0.680564530138434
aF215.1631425852732
aF-122.29293600600413
aF141.57547984299737
aF-1.8730571685223578e-55
aF-2.9611932605687754e-21
aF0.6805647338418772
aF399.3774518133221
aF-2.557752987528359e-82
aF0.0
aF-9.713344461787526e-06
aF97.2557662532834
aF8.281770437414596e-48
aF-1.0496694450903168e-09
aF158.8350553586999
aF-3.385709315148509e-148
aF-2.1337929609835985e-123
aF-23.61183241434823
aF-2.588474840396228e-116
aF0.5674208468406652
aF-146.58181211451108
aF561.667868256565
aF-765.2484559072997
aF-144.11518807585588
aF1141.2119648621115
aF-0.6490371072491614
aF0.0
aF2.894595006555509
aF-85.02620382580832
aF0.6805647335111291
aF-1.9786432117848388e-15
aF97.2557662532834
aF0.0
aF-869.2895240005088
aF28.9410886408839
aF836.4495481410055
aF-87.61653811629864
aF254.29828874617914
aF-8.001303153100943e-66
aF-146.58181211451108
aF-1206.6726124563681
aF-38.65470878214315
aF-122.29293595060199
aF-865.9205475524899
aF-0.0010046700579532915
aF-3.013381315856506e-115
aF337.5303334763004
aF222.75287033210617
aF-9.713344461623298e-06
aF-286.1376487671367
aF164.14755833877922
aF-9.893216058924194e-16
aF-9.444732965823201
aF1.1519095401538493e-83
aF-7.926688623106885e-207
aF-1.3248691305887197e-06
aF-1.7555597020139832e-29
aF-663.5563036270066
aF0.6805647338418772
aF3.035342927063876
aF-39.72844964452745
aF-1.4324117448753066e-161
aF1223.0486121848944
aF3.0159967893600474
aF0.0
aF0.0
aF1246.6953998594604
aF-4.000400170310837e-16
aF228.89368736888338
aF-16.845904263492837
aF-1.6096601365317775e-263
aF-5.9039196608567345e-68
aF-2.1638943995316742e-26
aF-13.624623174233216
aF-2.879304828507649e-14
aF5.802616097919871e-43
aF3.0530700822090423e-12
aF-87.61653811629864
aF-165.09772941556187
aF-5.33996758980228e-07
aF-2.426204669369516e-90
aF-94.50856997079339
aF855.936067678392
aF-136.2014267580389
aF-96.12483044659588
aF1.1519095401538493e-83
aF7.996066319616313
aF-9.444732965823201
aF2.3131669392306144
aF228.89368736888338
aF-6.851635852982568e-114
aF1.1519095401538493e-83
aF3.133188277076628
aF-0.0381331851806931
aF-389.06939624479116
aF0.0006739986485077979
aF186.22455214436906
aF-248.25930629839277
aF-1.0086913586280172e-09
aF1.1519095401538493e-83
aF323.59318397620046
aF-357.2234291293237
aF1.1519095401538493e-83
aF97.2557662532834
aF-0.0008227522786606034
aF-605.3331132091927
aF-146.58181211451108
aF-1.3597132616109254e-16
aF299.65561836943255
aF-117.48924520105268
aF88.84217791856379
aF323.59318397620046
aF-5.972978124590006
aF-9.444732965739544
aF-87.61653811629864
aF-245.6721293311999
aF-649.3221378444865
aF3.07660736322732e-10
aF-9.444732965823201
aF-46.25872637650251
aF2.4287203721458395e-12
aF-5.278892339508341
aF-1.0132303468362099e-84
aF0.0
aF31.28124972955494
aF-109.12379529653302
aF-1.1313348048127885e-211
aF6.615053155078075
aF2.0306842025300504e-53
aF-2.473706901455591e-84
aF2.0306842025300504e-53
aF0.0
aF0.0
aF0.0
aF9.922579732617114
aF-1.7170382281266183e-220
aF9.284550294640354
aF8.82448090887415
aF6.615053155078075
aF9.922579732617114
aF0.0
aF-15.725480387955912
aF-461.8864053956871
aF6.615053155078075
aF1.2287517538015788e-40
aF-11.805916207174114
aF2.0306842025300504e-53
aF1.1519095401538493e-83
aF0.0
aF0.0
aF0.0
aF-136.19657411581366
aF-1.6225927682921342
aF53.32370590355995
aF-2.0370359763344876e-06
aF97.2557662532834
aF-1.8020267867304816e-136
aF-15.725480387955912
aF-3.742663209494516e-140
aF743.2325995345693
aF1.951092843947497e-12
aF3.035342927063876
aF0.3631496269207548
aF330.7478970744846
aF0.0
aF-2540.2459839283633
aF-15.725480387955912
aF-2.5684257331779204e-19
aF3.849624940493023e-52
aF-0.8271273165799723
aF-2.3493077727285904e-146
aF0.0
aF6.615053155078075
aF220.1790430275464
aF6.615053155078075
aF-5.086069634456626e-68
aF-768.1504566440087
aF6.615053155078075
aF4.190622494766407e-82
aF220.1790430275464
aF-9.684634156618068e-122
aF-120.33986886780815
aF-222.72179837926842
aF228.89368736888338
aF2.8392137667797172e-11
aF323.59318397620046
aF-3.013381315856506e-115
aF0.4253529586511733
aF-14.411518807585589
aF-71.95330742794928
aF-0.0016460385540801848
aF0.6799219586244246
aF-7.029552803973752e-14
aF-3.236053816522052e-06
aF-39.72844964452745
aF-1478.1995997375702
aF-109.04576415302684
aF-4.078979626151584e-60
aF-4.18906976161963e-13
aF2.8392137667797172e-11
aF-50.84625494783761
aF164.45186087275746
aF-146.58181211451108
aF-1712.176547172429
aF9.922579732617114
aF11.98043905756476
aF11.044651823072657
aF-1.7170382281266183e-220
aF1106.4829441247846
aF208.16636828060663
aF1.2379400392853805
aF11.966538321119174
aF-11.805916207174258
aF0.0
aF-1.371088090207264e-16
aF-2.0370359763344876e-06
aF3.1291708121393578
aF0.27222589353495275
aF-102.87606026142801
aF-3.4069227493634403e-54
aF-1.7170382281266183e-220
aF-9.444732965823201
aF-1.1313348048127885e-211
aF0.0
aF-1.2953760294995065e-59
aF-9.893216058924194e-16
aF1.206607958363384e-99
aF-51.423770216333956
aF0.0
aF297.2557664487116
aF80.66966040735036
aF0.0
aF-1.5309010345804215e-18
aF-1.1313348048127885e-211
aF-1.6437924692338692e-19
aF-386.2390801190677
aF-9.893216058924194e-16
aF1035.1769743522968
aF0.0
aF-6.6991107534952814e-167
aF-118.39581677631898
aF-1.0764599568230016
aF2.0587978721791255e-12
aF-4.452197977997649e-07
aF-1.7170382281266183e-220
aF-1.7170382281266183e-220
aF2.0306842025300504e-53
aF-11.805916207174114
aF-11.805916207174114
aF0.0
aF3.849624940493023e-52
aF0.0
aF-15.725480387955912
aF0.0
aF0.0
asVmu
p9
F1e-05
sb.